(dp0
S'METTS MARK'
p1
(dp2
S'to_messages'
p3
F0.05327084295993135
sS'deferral_payments'
p4
F0.015698010104923967
sS'expenses_salary_ratio'
p5
F0.002184137138867645
sS'expenses'
p6
F0.41221263928170204
sS'poi'
p7
I00
sS'long_term_incentive'
p8
F0.0
sS'bonus_salary_ratio'
p9
F0.06686122352267185
sS'from_poi_to_this_person'
p10
F0.07196969696969698
sS'deferred_income'
p11
F1.0
sS'fraction_from_poi'
p12
F0.21665480239394658
sS'restricted_stock_deferred'
p13
F0.1036542684938879
sS'shared_receipt_with_poi'
p14
F0.12715087846404638
sS'loan_advances'
p15
F0.0
sS'from_messages'
p16
F0.0020183741648106906
sS'other'
p17
F0.00016795806145122137
sS'director_fees'
p18
F0.0
sS'bonus'
p19
F0.075
sS'total_stock_value'
p20
F0.012799625895430116
sS'from_this_person_to_poi'
p21
F0.0016420361247947454
sS'restricted_stock'
p22
F0.18366452871857167
sS'salary'
p23
F0.329165684296536
sS'total_payments'
p24
F0.010253274646850637
sS'fraction_to_poi'
p25
F0.034482758620689655
sS'exercised_stock_options'
p26
F0.0
ssS'BAXTER JOHN C'
p27
(dp28
g3
F0.0
sg4
F0.21414199271306028
sg5
F0.00035525741638189304
sg6
F0.04895896626639797
sg7
I00
sg8
F0.3082451353957703
sg9
F0.18312879147225472
sg10
F0.0
sg11
F0.6044799288662835
sg12
F0.0
sg13
F0.1036542684938879
sg14
F0.0
sg15
F0.0
sg16
F0.0
sg17
F0.25679272112233825
sg18
F0.0
sg19
F0.15
sg20
F0.21701822618471178
sg21
F0.0
sg22
F0.377008789035058
sg23
F0.2403600244047737
sg24
F0.05440666533584129
sg25
F0.0
sg26
F0.1944936914644951
ssS'ELLIOTT STEVEN'
p29
(dp30
g3
F0.0
sg4
F0.015698010104923967
sg5
F0.003893258828570154
sg6
F0.34337720697840124
sg7
I00
sg8
F0.0
sg9
F0.08345922111984917
sg10
F0.0
sg11
F0.8856492977657142
sg12
F0.0
sg13
F0.1036542684938879
sg14
F0.0
sg15
F0.0
sg16
F0.0
sg17
F0.0012510945025685518
sg18
F0.0
sg19
F0.04375
sg20
F0.1367702447875685
sg21
F0.0
sg22
F0.2529560322521056
sg23
F0.15382656412822224
sg24
F0.002044471062239377
sg25
F0.0
sg26
F0.14237479119832827
ssS'CORDES WILLIAM R'
p31
(dp32
g3
F0.050432371773714436
sg4
F0.015698010104923967
sg5
F0.0
sg6
F0.0
sg7
I00
sg8
F0.0
sg9
F0.0
sg10
F0.01893939393939394
sg11
F1.0
sg12
F0.060223348557424526
sg13
F0.1036542684938879
sg14
F0.01050534323492121
sg15
F0.0
sg16
F0.0008351893095768374
sg17
F0.0
sg18
F0.0
sg19
F0.0
sg20
F0.022018029761909728
sg21
F0.0
sg22
F0.1722211972417199
sg23
F0.0
sg24
F0.0
sg25
F0.0
sg26
F0.018977603138476618
ssS'HANNON KEVIN P'
p33
(dp34
g3
F0.06898145092085287
sg4
F0.015698010104923967
sg5
F0.0011853577664899732
sg6
F0.14879591542338577
sg7
I01
sg8
F0.31426134316366705
sg9
F0.25131254526343844
sg10
F0.06060606060606061
sg11
F0.11054004895579425
sg12
F0.14089382062506361
sg13
F0.1036542684938879
sg14
F0.187466038761094
sg15
F0.0
sg16
F0.0022271714922048997
sg17
F0.0010955885042938864
sg18
F0.0
sg19
F0.1875
sg20
F0.13091784215016056
sg21
F0.034482758620689655
sg22
F0.19909693459426664
sg23
F0.2189347568251477
sg24
F0.002787587649967589
sg25
F0.65625
sg26
F0.1612303216360921
ssS'MORDAUNT KRISTINA M'
p35
(dp36
g3
F0.0
sg4
F0.015698010104923967
sg5
F0.0011107878035997835
sg6
F0.1530754536354218
sg7
I00
sg8
F0.0
sg9
F0.04959905226345072
sg10
F0.0
sg11
F1.0
sg12
F0.0
sg13
F0.1036542684938879
sg14
F0.0
sg15
F0.0
sg16
F0.0
sg17
F0.0001362004739699272
sg18
F0.0
sg19
F0.040625
sg20
F0.005138994206615752
sg21
F0.0
sg22
F0.16198146927384854
sg23
F0.24035192547545214
sg24
F0.006069170107360102
sg25
F0.0
sg26
F0.0
ssS'MEYER ROCKFORD G'
p37
(dp38
g3
F0.015314542214007526
sg4
F0.2987564112970538
sg5
F0.0
sg6
F0.0
sg7
I00
sg8
F0.0
sg9
F0.0
sg10
F0.0
sg11
F1.0
sg12
F0.0
sg13
F0.1036542684938879
sg14
F0.003984785364970114
sg15
F0.0
sg16
F0.0019487750556792874
sg17
F0.0
sg18
F0.0
sg19
F0.0
sg20
F0.020343461798999724
sg21
F0.0
sg22
F0.17660034006319408
sg23
F0.0
sg24
F0.017846955333330958
sg25
F0.0
sg26
F0.014367167899369006
ssS'MCMAHON JEFFREY'
p39
(dp40
g3
F0.15545580566374018
sg4
F0.015698010104923967
sg5
F0.003135723868065605
sg6
F0.5993451738261869
sg7
I00
sg8
F0.13504439081329195
sg9
F0.2860873248866635
sg10
F0.10984848484848485
sg11
F1.0
sg12
F0.11331707096715907
sg13
F0.1036542684938879
sg14
F0.40355008150697336
sg15
F0.0
sg16
F0.0033407572383073497
sg17
F0.028702777842933923
sg18
F0.0
sg19
F0.325
sg20
F0.03472641212889136
sg21
F0.042692939244663386
sg22
F0.1821523369785786
sg23
F0.3333591299230242
sg24
F0.03958844336430838
sg25
F0.5416666666666666
sg26
F0.03214282220671575
ssS'HORTON STANLEY C'
p41
(dp42
g3
F0.1551257508746452
sg4
F0.49534649719962814
sg5
F0.0
sg6
F0.0
sg7
I00
sg8
F0.0
sg9
F0.0
sg10
F0.08333333333333333
sg11
F1.0
sg12
F0.08614757808963332
sg13
F0.1036542684938879
sg14
F0.19452997645354103
sg15
F0.0
sg16
F0.07467984409799555
sg17
F0.0
sg18
F0.0
sg19
F0.0
sg20
F0.1485273955693404
sg21
F0.024630541871921183
sg22
F0.26779452526818787
sg23
F0.0
sg24
F0.030242045771566962
sg25
F0.013979496738117428
sg26
F0.15169764609595607
ssS'PIPER GREGORY F'
p43
(dp44
g3
F0.08172156577991947
sg4
F0.18876451300178115
sg5
F0.0018508841839353848
sg6
F0.1882166259403837
sg7
I00
sg8
F0.0
sg9
F0.08272670400952213
sg10
F0.11553030303030302
sg11
F0.9904882053518077
sg12
F0.22670831471487984
sg13
F0.07990329204861842
sg14
F0.13439594276399203
sg15
F0.0
sg16
F0.015451002227171492
sg17
F7.509848954543116e-05
sg18
F0.0
sg19
F0.05
sg20
F0.01880578964499269
sg21
F0.07881773399014778
sg22
F0.17355822096552703
sg23
F0.1773584532124853
sg24
F0.016778992596093736
sg25
F0.21621621621621623
sg26
F0.025628279921407655
ssS'HUMPHREY GENE E'
p45
(dp46
g3
F0.008449402600831738
sg4
F0.46971601151085307
sg5
F0.00032366480711925195
sg6
F0.021830453351284956
sg7
I00
sg8
F0.0
sg9
F0.0
sg10
F0.01893939393939394
sg11
F1.0
sg12
F0.35945811170212766
sg13
F0.1036542684938879
sg14
F0.021554066292338345
sg15
F0.0
sg16
F0.001183184855233853
sg17
F0.0
sg18
F0.0
sg19
F0.0
sg20
F0.04733801735767246
sg21
F0.027914614121510674
sg22
F0.1499748016029313
sg23
F0.1176360485143864
sg24
F0.029936560417806166
sg25
F1.0
sg26
F0.0664592546770177
ssS'UMANOFF ADAM S'
p47
(dp48
g3
F0.007327216317908773
sg4
F0.015698010104923967
sg5
F0.0015595414229472792
sg6
F0.2322141255360351
sg7
I00
sg8
F0.0
sg9
F0.11140690832575262
sg10
F0.022727272727272728
sg11
F1.0
sg12
F0.4974123059229442
sg13
F0.1036542684938879
sg14
F0.007426190907444304
sg15
F0.0
sg16
F0.0012527839643652562
sg17
F0.0
sg18
F0.0
sg19
F0.09859375
sg20
F0.0008970347602851444
sg21
F0.0
sg22
F0.1499748016029313
sg23
F0.2596957682194414
sg24
F0.010916022205645004
sg25
F0.0
sg26
F0.0
ssS'BLACHMAN JEREMY M'
p49
(dp50
g3
F0.16337712060201995
sg4
F0.015698010104923967
sg5
F0.002870442455167177
sg6
F0.3681014849429322
sg7
I00
sg8
F0.16165963842894496
sg9
F0.1394006089109221
sg10
F0.04734848484848485
sg11
F1.0
sg12
F0.046475392220073075
sg13
F0.1036542684938879
sg14
F0.42130048904184025
sg15
F0.0
sg16
F0.0009743875278396437
sg17
F2.62555130544438e-05
sg18
F0.0
sg19
F0.10625
sg20
F0.02031255902983289
sg21
F0.003284072249589491
sg22
F0.16086038245362366
sg23
F0.22366183190582206
sg24
F0.01945576503807805
sg25
F0.14285714285714285
sg26
F0.022280902647414214
ssS'SUNDE MARTIN'
p51
(dp52
g3
F0.1747310053468876
sg4
F0.015698010104923967
sg5
F0.0
sg6
F0.0
sg7
I00
sg8
F0.09259685383196053
sg9
F0.11081458966660819
sg10
F0.07007575757575757
sg11
F1.0
sg12
F0.06431407695584725
sg13
F0.1036542684938879
sg14
F0.46458974823401555
sg15
F0.0
sg16
F0.0026447661469933183
sg17
F0.010726342358955528
sg18
F0.0
sg19
F0.0875
sg20
F0.01511597052465802
sg21
F0.021346469622331693
sg22
F0.19022083377672377
sg23
F0.2317067683652221
sg24
F0.014919487141114698
sg25
F0.34210526315789475
sg26
F0.0
ssS'GIBBS DANA R'
p53
(dp54
g3
F0.011155851871410653
sg4
F0.0929796967297599
sg5
F0.0
sg6
F0.0
sg7
I00
sg8
F0.08977124184276779
sg9
F0.0
sg10
F0.0
sg11
F1.0
sg12
F0.0
sg13
F0.1036542684938879
sg14
F0.004165911972468755
sg15
F0.0
sg16
F0.0008351893095768374
sg17
F0.0
sg18
F0.0
sg19
F0.0
sg20
F0.046025961865982845
sg21
F0.0
sg22
F0.1499748016029313
sg23
F0.0
sg24
F0.009332985051447525
sg25
F0.0
sg26
F0.06458164087137258
ssS'LOWRY CHARLES P'
p55
(dp56
g3
F0.0
sg4
F0.015698010104923967
sg5
F0.0
sg6
F0.0
sg7
I00
sg8
F0.0
sg9
F0.0
sg10
F0.0
sg11
F1.0
sg12
F0.0
sg13
F0.09474166462243826
sg14
F0.0
sg15
F0.0
sg16
F0.0
sg17
F0.0
sg18
F0.0
sg19
F0.0
sg20
F0.008469230413834057
sg21
F0.0
sg22
F0.15882452932665
sg23
F0.0
sg24
F0.0
sg25
F0.0
sg26
F0.010836172088911083
ssS'COLWELL WESLEY'
p57
(dp58
g3
F0.1160472638457984
sg4
F0.019926517997577147
sg5
F0.0004848925514285822
sg6
F0.0721882472252943
sg7
I01
sg8
F0.0
sg9
F0.16952147853630387
sg10
F0.45454545454545453
sg11
F0.9588909440912046
sg12
F0.6281315808583254
sg13
F0.1036542684938879
sg14
F0.20503531968846223
sg15
F0.0
sg16
F0.0027839643652561247
sg17
F0.009820720213820265
sg18
F0.0
sg19
F0.15
sg20
F0.015102177188584871
sg21
F0.0180623973727422
sg22
F0.1901817923845561
sg23
F0.2596534738107622
sg24
F0.014391145026719008
sg25
F0.275
sg26
F0.0
ssS'MULLER MARK S'
p59
(dp60
g3
F0.008977490263383722
sg4
F0.1447929317603672
sg5
F0.0
sg6
F0.0
sg7
I00
sg8
F0.3353546075996699
sg9
F0.17817278586804502
sg10
F0.022727272727272728
sg11
F0.7948285377238694
sg12
F0.4059762202753442
sg13
F0.1036542684938879
sg14
F0.020648433254845135
sg15
F0.0
sg16
F0.0011135857461024498
sg17
F9.141165758293484e-05
sg18
F0.0
sg19
F0.1375
sg20
F0.029721607958763052
sg21
F0.0
sg22
F0.17073514826285383
sg23
F0.2264586621648618
sg24
F0.030920011591757432
sg25
F0.0
sg26
F0.030753120729056716
ssS'JACKSON CHARLENE R'
p61
(dp62
g3
F0.017030827117301472
sg4
F0.015698010104923967
sg5
F0.0002989231764461666
sg6
F0.044504574603410514
sg7
I00
sg8
F0.0
sg9
F0.03531501643504236
sg10
F0.04734848484848485
sg11
F1.0
sg12
F0.4458395183902359
sg13
F0.1036542684938879
sg14
F0.02119181307734106
sg15
F0.0
sg16
F0.0038975501113585748
sg17
F0.00023504475841018622
sg18
F0.0
sg19
F0.03125
sg20
F0.015661499000766386
sg21
F0.031198686371100164
sg22
F0.18110841161190047
sg23
F0.25966787190733387
sg24
F0.005322277923054558
sg25
F0.3392857142857143
sg26
F0.005387822611974991
ssS'WESTFAHL RICHARD K'
p63
(dp64
g3
F0.0
sg4
F0.015698010104923967
sg5
F0.006894125831936474
sg6
F0.22674121252125562
sg7
I00
sg8
F0.04978996912602513
sg9
F0.0
sg10
F0.0
sg11
F0.9969181477154628
sg12
F0.0
sg13
F0.1036542684938879
sg14
F0.0
sg15
F0.0
sg16
F0.0
sg17
F0.038720124821797944
sg18
F0.0
sg19
F0.0
sg20
F0.008728109767124341
sg21
F0.0
sg22
F0.1721402928818444
sg23
F0.05736201674138679
sg24
F0.00735937160476943
sg25
F0.0
sg26
F0.0
ssS'WALTERS GARETH W'
p65
(dp66
g3
F0.0
sg4
F0.023910749537865896
sg5
F0.0
sg6
F0.14768559600984424
sg7
I00
sg8
F0.0
sg9
F0.0
sg10
F0.0
sg11
F1.0
sg12
F0.0
sg13
F0.1036542684938879
sg14
F0.0
sg15
F0.0
sg16
F0.0
sg17
F0.0
sg18
F0.0
sg19
F0.0
sg20
F0.021858206092012007
sg21
F0.0
sg22
F0.1499748016029313
sg23
F0.0
sg24
F0.0008440534445641467
sg25
F0.0
sg26
F0.02999643301996391
ssS'WALLS JR ROBERT H'
p67
(dp68
g3
F0.044293352696547626
sg4
F0.015698010104923967
sg5
F0.0012085043073506044
sg6
F0.22265838444153993
sg7
I00
sg8
F0.10509337016080665
sg9
F0.09702698679713026
sg10
F0.032196969696969696
sg11
F1.0
sg12
F0.11656942638805212
sg13
F0.1036542684938879
sg14
F0.03894222061220794
sg15
F0.0
sg16
F0.010161469933184855
sg17
F1.9305524304738086e-07
sg18
F0.0
sg19
F0.10625
sg20
F0.12090713522561493
sg21
F0.0
sg22
F0.23936997327680049
sg23
F0.3213394189288176
sg24
F0.017369482382028324
sg25
F0.0
sg26
F0.1265428964576616
ssS'KITCHEN LOUISE'
p69
(dp70
g3
F0.548221004686778
sg4
F0.015698010104923967
sg5
F0.0001802195924811285
sg6
F0.02524009564483767
sg7
I00
sg8
F0.0
sg9
F0.465518741957916
sg10
F0.4753787878787879
sg11
F1.0
sg12
F0.1390568357948941
sg13
F0.1036542684938879
sg14
F0.6645535229125159
sg15
F0.0
sg16
F0.12026726057906459
sg17
F0.009066356851612624
sg18
F0.0
sg19
F0.3875
sg20
F0.012028195938855322
sg21
F0.3185550082101806
sg22
F0.17681437672202482
sg23
F0.2442655080998292
sg24
F0.03351823038116733
sg25
F0.11226851851851852
sg26
F0.002359412308887661
ssS'CHAN RONNIE'
p71
(dp72
g3
F0.0
sg4
F0.015698010104923967
sg5
F0.0
sg6
F0.0
sg7
I00
sg8
F0.0
sg9
F0.0
sg10
F0.0
sg11
F0.9718113244374336
sg12
F0.0
sg13
F0.10177183859352447
sg14
F0.0
sg15
F0.0
sg16
F0.0
sg17
F0.0
sg18
F0.7165322346660477
sg19
F0.0
sg20
F0.0008970347602851444
sg21
F0.0
sg22
F0.15184395144033946
sg23
F0.0
sg24
F0.0
sg25
F0.0
sg26
F0.0
ssS'BELFER ROBERT'
p73
(dp74
g3
F0.0
sg4
F0.0
sg5
F0.0
sg6
F0.0
sg7
I00
sg8
F0.0
sg9
F0.0
sg10
F0.0
sg11
F1.0
sg12
F0.0
sg13
F0.10621132276365762
sg14
F0.0
sg15
F0.0
sg16
F0.0
sg17
F0.0
sg18
F0.023827830325538212
sg19
F0.0
sg20
F0.0
sg21
F0.0
sg22
F0.1499748016029313
sg23
F0.0
sg24
F0.0009897663661803573
sg25
F0.0
sg26
F9.56376870597464e-05
ssS'SHANKMAN JEFFREY A'
p75
(dp76
g3
F0.21262129513499242
sg4
F0.015698010104923967
sg5
F0.004986245373429574
sg6
F0.782377394945861
sg7
I00
sg8
F0.10775028889691327
sg9
F0.268072224194218
sg10
F0.17803030303030304
sg11
F1.0
sg12
F0.13427506985408258
sg13
F0.1036542684938879
sg14
F0.3133490309726499
sg15
F0.0
sg16
F0.18659521158129175
sg17
F0.00011496439723471531
sg18
F0.0
sg19
F0.25
sg20
F0.043050832858110864
sg21
F0.13628899835796388
sg22
F0.1862600902996306
sg23
F0.2736628217749614
sg24
F0.029342488160438867
sg25
F0.030958597538232
sg26
F0.041978627000327
ssS'WODRASKA JOHN'
p77
(dp78
g3
F0.0
sg4
F0.015698010104923967
sg5
F0.0
sg6
F0.0
sg7
I00
sg8
F0.0
sg9
F0.0
sg10
F0.0
sg11
F1.0
sg12
F0.0
sg13
F0.1036542684938879
sg14
F0.0
sg15
F0.0
sg16
F0.0
sg17
F0.018299996071325805
sg18
F0.0
sg19
F0.0
sg20
F0.0008970347602851444
sg21
F0.0
sg22
F0.1499748016029313
sg23
F0.0
sg24
F0.0018306622146299577
sg25
F0.0
sg26
F0.0
ssS'BERGSIEKER RICHARD P'
p79
(dp80
g3
F0.025282196844676218
sg4
F0.015698010104923967
sg5
F0.0026678592350630817
sg6
F0.25867382400125893
sg7
I00
sg8
F0.03503105860458029
sg9
F0.05422691602081159
sg10
F0.007575757575757576
sg11
F0.8613700088974217
sg12
F0.04805288595078051
sg13
F0.1036542684938879
sg14
F0.042202499547183484
sg15
F0.0
sg16
F0.004106347438752784
sg17
F0.041247797119017306
sg18
F0.0
sg19
F0.03125
sg20
F0.014308897611150843
sg21
F0.0
sg22
F0.1879364516695205
sg23
F0.16910744399590374
sg24
F0.005975774787421601
sg25
F0.0
sg26
F0.0
ssS'URQUHART JOHN A'
p81
(dp82
g3
F0.0
sg4
F0.015698010104923967
sg5
F0.0
sg6
F0.9995322670187049
sg7
I00
sg8
F0.0
sg9
F0.0
sg10
F0.0
sg11
F0.9895371114939964
sg12
F0.0
sg13
F0.1036542684938879
sg14
F0.0
sg15
F0.0
sg16
F0.0
sg17
F0.0
sg18
F0.265957755469158
sg19
F0.0
sg20
F0.0008970347602851444
sg21
F0.0
sg22
F0.1499748016029313
sg23
F0.0
sg24
F0.00220796115341791
sg25
F0.0
sg26
F0.0
ssS'BIBI PHILIPPE A'
p83
(dp84
g3
F0.10607960921512971
sg4
F0.015698010104923967
sg5
F0.001529241083169438
sg6
F0.1685543553808964
sg7
I00
sg8
F0.07185419150260211
sg9
F0.19080969947268261
sg10
F0.043560606060606064
sg11
F1.0
sg12
F0.06585218922533066
sg13
F0.1036542684938879
sg14
F0.2419851476181851
sg15
F0.0
sg16
F0.0027839643652561247
sg17
F0.04109065015117674
sg18
F0.0
sg19
F0.125
sg20
F0.038407910490444445
sg21
F0.013136288998357963
sg22
F0.17174596330431602
sg23
F0.1922370862571968
sg24
F0.01977208471245206
sg25
F0.2
sg26
F0.04267257522217057
ssS'PIRO JIM'
p85
(dp86
g3
F0.0038286355535018814
sg4
F0.015698010104923967
sg5
F0.0
sg6
F0.0
sg7
I00
sg8
F0.0
sg9
F0.0
sg10
F0.0
sg11
F1.0
sg12
F0.0
sg13
F0.1036542684938879
sg14
F0.0005433798224959246
sg15
F0.0
sg16
F0.0011135857461024498
sg17
F0.0
sg18
F0.0
sg19
F0.0
sg20
F0.0018593945974594913
sg21
F0.0016420361247947454
sg22
F0.15269871607947952
sg23
F0.0
sg24
F0.0
sg25
F0.0625
sg26
F0.0
ssS'RIEKER PAULA H'
p87
(dp88
g3
F0.08766255198362928
sg4
F0.04857622877131292
sg5
F0.0011311451660603895
sg6
F0.1454387291651185
sg7
I01
sg8
F0.0
sg9
F0.11449875977582864
sg10
F0.06628787878787878
sg11
F0.9714643306987301
sg12
F0.12126297744168163
sg13
F0.1036542684938879
sg14
F0.22785727223329108
sg15
F0.0
sg16
F0.005707126948775056
sg17
F0.00018822886197119635
sg18
F0.0
sg19
F0.0875
sg20
F0.03993516643785936
sg21
F0.07881773399014778
sg22
F0.16630821140672009
sg23
F0.2242512539842233
sg24
F0.010613192322622738
sg25
F0.5853658536585366
sg26
F0.04760742164755116
ssS'WHALEY DAVID A'
p89
(dp90
g3
F0.0
sg4
F0.015698010104923967
sg5
F0.0
sg6
F0.0
sg7
I00
sg8
F0.0
sg9
F0.0
sg10
F0.0
sg11
F1.0
sg12
F0.0
sg13
F0.1036542684938879
sg14
F0.0
sg15
F0.0
sg16
F0.0
sg17
F0.0
sg18
F0.0
sg19
F0.0
sg20
F0.002905368905519737
sg21
F0.0
sg22
F0.1499748016029313
sg23
F0.0
sg24
F0.0
sg25
F0.0
sg26
F0.002874021671587228
ssS'BECK SALLY W'
p91
(dp92
g3
F0.48287015644597003
sg4
F0.015698010104923967
sg5
F0.0013614015507192035
sg6
F0.16249131196915584
sg7
I00
sg8
F0.0
sg9
F0.12334416389960781
sg10
F0.2727272727272727
sg11
F1.0
sg12
F0.09057459897325518
sg13
F0.1036542684938879
sg14
F0.4779931171889151
sg15
F0.0
sg16
F0.30226893095768376
sg17
F5.463463378240879e-05
sg18
F0.0
sg19
F0.0875
sg20
F0.00346094739345721
sg21
F0.6338259441707718
sg22
F0.15723183630900145
sg23
F0.2081694799947447
sg24
F0.009357569882357721
sg25
F0.08887865530739121
sg26
F0.0
ssS'HAUG DAVID L'
p93
(dp94
g3
F0.03782427883028583
sg4
F0.015698010104923967
sg5
F0.0
sg6
F0.0020763847300481284
sg7
I00
sg8
F0.0
sg9
F0.0
sg10
F0.007575757575757576
sg11
F1.0
sg12
F0.032119119230626415
sg13
F0.1036542684938879
sg14
F0.08531063213186017
sg15
F0.0
sg16
F0.0013223830734966592
sg17
F0.0
sg18
F0.0
sg19
F0.0
sg20
F0.04600610597216664
sg21
F0.011494252873563218
sg22
F0.277653916369883
sg23
F0.0
sg24
F4.586722184738241e-06
sg25
F0.3684210526315789
sg26
F0.0
ssS'ECHOLS JOHN B'
p95
(dp96
g3
F0.0
sg4
F0.015698010104923967
sg5
F0.001000899974351293
sg6
F0.09411486997460254
sg7
I00
sg8
F0.43432176955335544
sg9
F0.04473288381009281
sg10
F0.0
sg11
F1.0
sg12
F0.0
sg13
F0.1036542684938879
sg14
F0.0
sg15
F0.0
sg16
F0.0
sg17
F0.005190772847436453
sg18
F0.0
sg19
F0.025
sg20
F0.02142308533694933
sg21
F0.0
sg22
F0.17344011787506108
sg23
F0.16399881935608113
sg24
F0.025997773093269894
sg25
F0.0
sg26
F0.017509935838611795
ssS'MENDELSOHN JOHN'
p97
(dp98
g3
F0.0
sg4
F0.015698010104923967
sg5
F0.0
sg6
F0.0006469577685202589
sg7
I00
sg8
F0.0
sg9
F0.0
sg10
F0.0
sg11
F0.9703942430999325
sg12
F0.0
sg13
F0.1036542684938879
sg14
F0.0
sg15
F0.0
sg16
F0.0
sg17
F0.0
sg18
F0.7525532408750653
sg19
F0.0
sg20
F0.0008970347602851444
sg21
F0.0
sg22
F0.1499748016029313
sg23
F0.0
sg24
F1.4291260701921256e-06
sg25
F0.0
sg26
F0.0
ssS'HICKERSON GARY J'
p99
(dp100
g3
F0.0871344643210773
sg4
F0.015698010104923967
sg5
F0.003954332656309531
sg6
F0.4321022193274262
sg7
I00
sg8
F0.013453286933619205
sg9
F0.3271900555496444
sg10
F0.07575757575757576
sg11
F1.0
sg12
F0.13942617666021923
sg13
F0.1036542684938879
sg14
F0.1630139467487774
sg15
F0.0
sg16
F0.0018791759465478842
sg17
F0.00018687747526986468
sg18
F0.0
sg19
F0.2125
sg20
F0.009870759492617625
sg21
F0.0016420361247947454
sg22
F0.17537450944893823
sg23
F0.19058400479456616
sg24
F0.020102357678524908
sg25
F0.037037037037037035
sg26
F0.0
ssS'CLINE KENNETH W'
p101
(dp102
g3
F0.0
sg4
F0.015698010104923967
sg5
F0.0
sg6
F0.0
sg7
I00
sg8
F0.0
sg9
F0.0
sg10
F0.0
sg11
F1.0
sg12
F0.0
sg13
F0.07624896556243538
sg14
F0.0
sg15
F0.0
sg16
F0.0
sg17
F0.0
sg18
F0.0
sg19
F0.0
sg20
F0.004752618043339598
sg21
F0.0
sg22
F0.18809981513497726
sg23
F0.0
sg24
F0.0
sg25
F0.0
sg26
F0.0
ssS'LEWIS RICHARD'
p103
(dp104
g3
F0.06284243184368606
sg4
F0.015698010104923967
sg5
F0.0
sg6
F0.0
sg7
I00
sg8
F0.0
sg9
F0.0
sg10
F0.01893939393939394
sg11
F1.0
sg12
F0.048330502413731456
sg13
F0.1036542684938879
sg14
F0.1338525629414961
sg15
F0.0
sg16
F0.001809576837416481
sg17
F0.0
sg18
F0.0
sg19
F0.0
sg20
F0.01819926939669067
sg21
F0.0
sg22
F0.1499748016029313
sg23
F0.0
sg24
F0.0
sg25
F0.0
sg26
F0.024760320601982324
ssS'HAYES ROBERT E'
p105
(dp106
g3
F0.03326952274077497
sg4
F0.016917247748292747
sg5
F0.0
sg6
F0.0
sg7
I00
sg8
F0.0
sg9
F0.0
sg10
F0.030303030303030304
sg11
F1.0
sg12
F0.14606551840594392
sg13
F0.1036542684938879
sg14
F0.009056330374932078
sg15
F0.0
sg16
F0.0008351893095768374
sg17
F0.0
sg18
F0.0
sg19
F0.0
sg20
F0.003977505794981264
sg21
F0.0
sg22
F0.15869393068736345
sg23
F0.0
sg24
F7.687346381621292e-05
sg25
F0.0
sg26
F0.0
ssS'KOPPER MICHAEL J'
p107
(dp108
g3
F0.0
sg4
F0.015698010104923967
sg5
F0.004462088966192865
sg6
F0.5164034393673802
sg7
I01
sg8
F0.11712734047312627
sg9
F0.14537962880845925
sg10
F0.0
sg11
F1.0
sg12
F0.0
sg13
F0.1036542684938879
sg14
F0.0
sg15
F0.0
sg16
F0.0
sg17
F0.08759900958799212
sg18
F0.0
sg19
F0.1
sg20
F0.0209366769709126
sg21
F0.0
sg22
F0.2066960709387854
sg23
F0.20184781571876198
sg24
F0.025614303806111315
sg25
F0.0
sg26
F0.0
ssS'LEFF DANIEL P'
p109
(dp110
g3
F0.18628292296521223
sg4
F0.015698010104923967
sg5
F0.0
sg6
F0.0
sg7
I00
sg8
F0.2696369246986746
sg9
F0.1489034435200946
sg10
F0.1268939393939394
sg11
F1.0
sg12
F0.10923858135922916
sg13
F0.1036542684938879
sg14
F0.4839702952363702
sg15
F0.0
sg16
F0.004384743875278397
sg17
F0.0002975946571575376
sg18
F0.0
sg19
F0.125
sg20
F0.008231671733412002
sg21
F0.022988505747126436
sg22
F0.17073514826285383
sg23
F0.2463388340061444
sg24
F0.025726470890106934
sg25
F0.2222222222222222
sg26
F0.0
ssS'LAVORATO JOHN J'
p111
(dp112
g3
F0.47917354280810615
sg4
F0.015698010104923967
sg5
F0.001236982263241734
sg6
F0.21654288499451396
sg7
I00
sg8
F0.39557013072172337
sg9
F0.9611120239997129
sg10
F1.0
sg11
F1.0
sg12
F0.33466892163213385
sg13
F0.1036542684938879
sg14
F0.7176236189096178
sg15
F0.0
sg16
F0.17991369710467706
sg17
F0.00014981086860476757
sg18
F0.0
sg19
F1.0
sg20
F0.10601820545401935
sg21
F0.6748768472906403
sg22
F0.2080272211788151
sg23
F0.30531883684976846
sg24
F0.10067379142018949
sg25
F0.15899419729206962
sg26
F0.12108269780610348
ssS'BERBERIAN DAVID'
p113
(dp114
g3
F0.0
sg4
F0.015698010104923967
sg5
F0.0004651947566505451
sg6
F0.05198393096785756
sg7
I00
sg8
F0.0
sg9
F0.0
sg10
F0.0
sg11
F1.0
sg12
F0.0
sg13
F0.1036542684938879
sg14
F0.0
sg15
F0.0
sg16
F0.0
sg17
F0.0
sg18
F0.0
sg19
F0.0
sg20
F0.05162754143488657
sg21
F0.0
sg22
F0.20002724835807337
sg23
F0.19489803447984178
sg24
F0.002206203714601863
sg25
F0.0
sg26
F0.04729177361007726
ssS'DETMERING TIMOTHY J'
p115
(dp116
g3
F0.0
sg4
F0.1497524308942965
sg5
F0.0021031876466841085
sg6
F0.22842417698666306
sg7
I00
sg8
F0.08078171831569504
sg9
F0.08229801363984335
sg10
F0.0
sg11
F0.7787797919521423
sg12
F0.0
sg13
F0.08538275204756296
sg14
F0.0
sg15
F0.0
sg16
F0.0
sg17
F0.00010666302178367793
sg18
F0.0
sg19
F0.053125
sg20
F0.0421522315980062
sg21
F0.0
sg22
F0.1681174171596938
sg23
F0.18942495802054968
sg24
F0.011631763304123252
sg25
F0.0
sg26
F0.05903814863604646
ssS'WAKEHAM JOHN'
p117
(dp118
g3
F0.0
sg4
F0.015698010104923967
sg5
F0.0
sg6
F0.4536266791395462
sg7
I00
sg8
F0.0
sg9
F0.0
sg10
F0.0
sg11
F1.0
sg12
F0.0
sg13
F0.1036542684938879
sg14
F0.0
sg15
F0.0
sg16
F0.0
sg17
F0.0
sg18
F0.7927957987581965
sg19
F0.0
sg20
F0.0008970347602851444
sg21
F0.0
sg22
F0.1499748016029313
sg23
F0.0
sg24
F0.0020574683844723405
sg25
F0.0
sg26
F0.0
ssS'POWERS WILLIAM'
p119
(dp120
g3
F0.04310515545580566
sg4
F0.015698010104923967
sg5
F0.0
sg6
F0.0
sg7
I00
sg8
F0.0
sg9
F0.0
sg10
F0.0
sg11
F0.9950062578722778
sg12
F0.0
sg13
F0.1036542684938879
sg14
F0.0021735192899836986
sg15
F0.0
sg16
F0.001809576837416481
sg17
F0.0
sg18
F0.1269366912319387
sg19
F0.0
sg20
F0.0008970347602851444
sg21
F0.0
sg22
F0.1499748016029313
sg23
F0.0
sg24
F0.0
sg25
F0.0
sg26
F0.0
ssS'GOLD JOSEPH'
p121
(dp122
g3
F0.0
sg4
F0.015698010104923967
sg5
F0.0
sg6
F0.0
sg7
I00
sg8
F0.05923795738124325
sg9
F0.1120319977183702
sg10
F0.0
sg11
F1.0
sg12
F0.0
sg13
F0.1036542684938879
sg14
F0.0
sg15
F0.0
sg16
F0.0
sg17
F0.07908392198290129
sg18
F0.0
sg19
F0.09375
sg20
F0.018751287657765604
sg21
F0.0
sg22
F0.17537450944893823
sg23
F0.24555953702920474
sg24
F0.020731723556071613
sg25
F0.0
sg26
F0.01270845813299397
ssS'BANNANTINE JAMES M'
p123
(dp124
g3
F0.03736220212555284
sg4
F0.015698010104923967
sg5
F1.0
sg6
F0.24611060355039932
sg7
I00
sg8
F0.0
sg9
F0.0
sg10
F0.07386363636363637
sg11
F0.9985435394388632
sg12
F0.3170344335012405
sg13
F0.07116570892391237
sg14
F0.08422387248686831
sg15
F0.0
sg16
F0.0020183741648106906
sg17
F0.08345034894252543
sg18
F0.0
sg19
F0.0
sg20
F0.10757133916468656
sg21
F0.0
sg22
F0.2511802247402193
sg23
F0.0004292432540418157
sg24
F0.008847033906296048
sg25
F0.0
sg26
F0.11779759420414072
ssS'DUNCAN JOHN H'
p125
(dp126
g3
F0.0
sg4
F0.015698010104923967
sg5
F0.0
sg6
F0.0
sg7
I00
sg8
F0.0
sg9
F0.0
sg10
F0.0
sg11
F0.9928660826746826
sg12
F0.0
sg13
F0.1036542684938879
sg14
F0.0
sg15
F0.0
sg16
F0.0
sg17
F0.0
sg18
F0.7434283061567922
sg19
F0.0
sg20
F0.008459973823991458
sg21
F0.0
sg22
F0.1499748016029313
sg23
F0.0
sg24
F0.0007482826853468121
sg25
F0.0
sg26
F0.0108229254686334
ssS'SHAPIRO RICHARD S'
p127
(dp128
g3
F1.0
sg4
F0.015698010104923967
sg5
F0.004337829807650577
sg6
F0.6022258844306116
sg7
I00
sg8
F0.0
sg9
F0.09846704772036036
sg10
F0.14015151515151514
sg11
F1.0
sg12
F0.02247532664890457
sg13
F0.1036542684938879
sg14
F0.8199601521463503
sg15
F0.0
sg16
F0.08456291759465479
sg17
F6.805197317420176e-05
sg18
F0.0
sg19
F0.08125
sg20
F0.020976734609154533
sg21
F0.10673234811165845
sg22
F0.17180826829889628
sg23
F0.24213638956929895
sg24
F0.010211955522159068
sg25
F0.053497942386831275
sg26
F0.017696232812582972
ssS'SHERRIFF JOHN R'
p129
(dp130
g3
F0.21037692256914647
sg4
F0.015698010104923967
sg5
F0.0
sg6
F0.0
sg7
I00
sg8
F0.10775028889691327
sg9
F0.14259663014780943
sg10
F0.05303030303030303
sg11
F1.0
sg12
F0.040423529097597284
sg13
F0.1036542684938879
sg14
F0.38090925556964317
sg15
F0.0
sg16
F0.006403118040089087
sg17
F0.1787871091994781
sg18
F0.0
sg19
F0.1875
sg20
F0.06455352486770655
sg21
F0.03776683087027915
sg22
F0.22445426122399717
sg23
F0.385850990499056
sg24
F0.04186362172431148
sg25
F0.25
sg26
F0.05343942818387031
ssS'SHELBY REX'
p131
(dp132
g3
F0.01485246550927454
sg4
F0.015698010104923967
sg5
F0.000915204277589248
sg6
F0.10003365928930814
sg7
I01
sg8
F0.0
sg9
F0.03848277227568571
sg10
F0.02462121212121212
sg11
F0.9988109186602161
sg12
F0.26583924349881793
sg13
F0.1036542684938879
sg14
F0.016482521282376383
sg15
F0.0
sg16
F0.0027143652561247215
sg17
F0.15186922360613872
sg18
F0.0
sg19
F0.025
sg20
F0.05162754143488657
sg21
F0.022988505747126436
sg22
F0.20002724835807337
sg23
F0.19063439813256688
sg24
F0.019350029021398294
sg25
F0.358974358974359
sg26
F0.04729177361007726
ssS'LEMAISTRE CHARLES'
p133
(dp134
g3
F0.0
sg4
F0.015698010104923967
sg5
F0.0
sg6
F0.0
sg7
I00
sg8
F0.0
sg9
F0.0
sg10
F0.0
sg11
F0.9928660826746826
sg12
F0.0
sg13
F0.1036542684938879
sg14
F0.0
sg15
F0.0
sg16
F0.0
sg17
F0.0
sg18
F0.8159635582893286
sg19
F0.0
sg20
F0.009296688169148453
sg21
F0.0
sg22
F0.1499748016029313
sg23
F0.0
sg24
F0.0008448452576570909
sg25
F0.0
sg26
F0.012020303487931193
ssS'DEFFNER JOSEPH M'
p135
(dp136
g3
F0.04713182388276454
sg4
F0.015698010104923967
sg5
F0.0017109791191622127
sg6
F0.18196124373259662
sg7
I00
sg8
F0.06517409415804382
sg9
F0.11865376759239035
sg10
F0.2178030303030303
sg11
F1.0
sg12
F0.7410677036772156
sg13
F0.1036542684938879
sg14
F0.09998188733925013
sg15
F0.0
sg16
F0.00515033407572383
sg17
F0.0024665703127948616
sg18
F0.0
sg19
F0.075
sg20
F0.004136047783208469
sg21
F0.006568144499178982
sg22
F0.15814199596180714
sg23
F0.1854843789651008
sg24
F0.01167102564602461
sg25
F0.05405405405405406
sg26
F0.0005059335542539643
ssS'KISHKILL JOSEPH G'
p137
(dp138
g3
F0.0
sg4
F0.015698010104923967
sg5
F0.0056565267765343345
sg6
F0.5085394054108401
sg7
I00
sg8
F0.0
sg9
F0.0
sg10
F0.0
sg11
F0.9854348236752458
sg12
F0.0
sg13
F0.1036542684938879
sg14
F0.0
sg15
F0.0
sg16
F0.0
sg17
F0.04491980436940001
sg18
F0.0
sg19
F0.0
sg20
F0.021939928556622388
sg21
F0.0
sg22
F0.20953572759565373
sg23
F0.15680067095130024
sg24
F0.006806657097122626
sg25
F0.0
sg26
F0.0
ssS'WHALLEY LAWRENCE G'
p139
(dp140
g3
F0.3973199551125487
sg4
F0.015698010104923967
sg5
F0.0009601420817865114
sg6
F0.25282934740320767
sg7
I00
sg8
F0.1570996732248436
sg9
F0.23960382423046192
sg10
F0.3522727272727273
sg11
F1.0
sg12
F0.14218273340096785
sg13
F0.1036542684938879
sg14
F0.7100163013946749
sg15
F0.0
sg16
F0.03869710467706013
sg17
F0.02905732379679044
sg18
F0.0
sg19
F0.375
sg20
F0.12457193103714434
sg21
F0.03940886699507389
sg22
F0.31098754913572263
sg23
F0.45926688491781387
sg24
F0.04516785776116799
sg25
F0.04316546762589928
sg26
F0.09557829561938053
ssS'MCCARTY DANNY J'
p141
(dp142
g3
F0.09459370255462407
sg4
F0.015698010104923967
sg5
F0.0
sg6
F0.0
sg7
I00
sg8
F0.0
sg9
F0.0
sg10
F0.04734848484848485
sg11
F1.0
sg12
F0.08026978070110317
sg13
F0.1036542684938879
sg14
F0.0920123166093099
sg15
F0.0
sg16
F0.01496380846325167
sg17
F0.0
sg18
F0.0
sg19
F0.0
sg20
F0.016336843520359644
sg21
F0.003284072249589491
sg22
F0.15541963623096472
sg23
F0.0
sg24
F0.0
sg25
F0.009302325581395349
sg26
F0.019342249114252363
ssS'MCCONNELL MICHAEL S'
p143
(dp144
g3
F0.2197504785794442
sg4
F0.015698010104923967
sg5
F0.001888410841729889
sg6
F0.3556694045802862
sg7
I00
sg8
F0.10775028889691327
sg9
F0.12283075804392145
sg10
F0.17424242424242425
sg11
F1.0
sg12
F0.1271546627637205
sg13
F0.1036542684938879
sg14
F0.39648614381452635
sg15
F0.0
sg16
F0.19084075723830735
sg17
F5.2124915622792834e-05
sg18
F0.0
sg19
F0.1375
sg20
F0.06398993078328999
sg21
F0.3185550082101806
sg22
F0.23509822307537454
sg23
F0.3284907735197407
sg24
F0.02029131132002166
sg25
F0.07075127644055434
sg26
F0.04725142236676986
ssS'DELAINEY DAVID W'
p145
(dp146
g3
F0.20417189253416068
sg4
F0.015698010104923967
sg5
F0.0019993634856157257
sg6
F0.3766955320571946
sg7
I01
sg8
F0.2516757575745797
sg9
F0.3348783040712105
sg10
F0.125
sg11
F1.0
sg12
F0.0981798295395918
sg13
F0.1036542684938879
sg14
F0.37982249592465134
sg15
F0.0
sg16
F0.21359966592427618
sg17
F0.00016033237935084981
sg18
F0.0
sg19
F0.375
sg20
F0.07442611533413919
sg21
F1.0
sg22
F0.22616586349655168
sg23
F0.3286032586492066
sg24
F0.0458477065515185
sg25
F0.198435972629521
sg26
F0.06670220642694573
ssS'SULLIVAN-SHAKLOVITZ COLLEEN'
p147
(dp148
g3
F0.0
sg4
F0.04357047793931838
sg5
F0.0
sg6
F0.0
sg7
I00
sg8
F0.10775028889691327
sg9
F0.025041142929893793
sg10
F0.0
sg11
F1.0
sg12
F0.0
sg13
F0.1036542684938879
sg14
F0.0
sg15
F0.0
sg16
F0.0
sg17
F1.563747468683785e-05
sg18
F0.0
sg19
F0.0125
sg20
F0.028613400885145638
sg21
F0.0
sg22
F0.1499748016029313
sg23
F0.14648173511461784
sg24
F0.009650038601371093
sg25
F0.0
sg26
F0.03966343802375099
ssS'WROBEL BRUCE'
p149
(dp150
g3
F0.0
sg4
F0.015698010104923967
sg5
F0.0
sg6
F0.0
sg7
I00
sg8
F0.0
sg9
F0.0
sg10
F0.0
sg11
F1.0
sg12
F0.0
sg13
F0.1036542684938879
sg14
F0.0
sg15
F0.0
sg16
F0.0
sg17
F0.0
sg18
F0.0
sg19
F0.0
sg20
F0.0037275168367705766
sg21
F0.0
sg22
F0.1499748016029313
sg23
F0.0
sg24
F0.0
sg25
F0.0
sg26
F0.004050554459854647
ssS'LINDHOLM TOD A'
p151
(dp152
g3
F0.0
sg4
F0.04695236534553235
sg5
F0.0020683740641343584
sg6
F0.25234412907681747
sg7
I00
sg8
F0.034010736509301254
sg9
F0.03447706944590503
sg10
F0.0
sg11
F1.0
sg12
F0.0
sg13
F0.1036542684938879
sg14
F0.0
sg15
F0.0
sg16
F0.0
sg17
F0.00025386764460730586
sg18
F0.0
sg19
F0.025
sg20
F0.06323575266888339
sg21
F0.0
sg22
F0.1796213261358972
sg23
F0.21278317006491743
sg24
F0.008457809489827776
sg25
F0.0
sg26
F0.0742206969620463
ssS'MEYER JEROME J'
p153
(dp154
g3
F0.0
sg4
F0.015698010104923967
sg5
F0.0
sg6
F0.009402744324912683
sg7
I00
sg8
F0.0
sg9
F0.0
sg10
F0.0
sg11
F0.989057712249735
sg12
F0.0
sg13
F0.1036542684938879
sg14
F0.0
sg15
F0.0
sg16
F0.0
sg17
F0.0
sg18
F0.2781436778274241
sg19
F0.0
sg20
F0.0008970347602851444
sg21
F0.0
sg22
F0.1499748016029313
sg23
F0.0
sg24
F2.077060930394096e-05
sg25
F0.0
sg26
F0.0
ssS'LAY KENNETH L'
p155
(dp156
g3
F0.28206482276057826
sg4
F0.04677409721126765
sg5
F0.0007887642726687623
sg6
F0.4363992428845574
sg7
I01
sg8
F0.6996494367627687
sg9
F0.2660882835913525
sg10
F0.23295454545454544
sg11
F0.9143929920961903
sg12
F0.1324434474757383
sg13
F0.1036542684938879
sg14
F0.4366962506792248
sg15
F1.0
sg16
F0.0025055679287305124
sg17
F1.0
sg18
F0.0
sg19
F0.875
sg20
F1.0
sg21
F0.026272577996715927
sg22
F1.0
sg23
F0.9649613321118948
sg24
F1.0
sg25
F0.4444444444444444
sg26
F1.0
ssS'BUTTS ROBERT H'
p157
(dp158
g3
F0.0
sg4
F0.015698010104923967
sg5
F0.00030485521512423395
sg6
F0.04113427433632187
sg7
I00
sg8
F0.034010736509301254
sg9
F0.11690027201926026
sg10
F0.0
sg11
F0.9785982480240476
sg12
F0.0
sg13
F0.1036542684938879
sg14
F0.0
sg15
F0.0
sg16
F0.0
sg17
F0.014542465348273106
sg18
F0.0
sg19
F0.09375
sg20
F0.00939313980089299
sg21
F0.0
sg22
F0.17402262926616463
sg23
F0.23533328893920225
sg24
F0.012278722882344889
sg25
F0.0
sg26
F0.0
ssS'OLSON CINDY K'
p159
(dp160
g3
F0.07815697405769358
sg4
F0.027600317942136368
sg5
F0.0016423390960512534
sg6
F0.278851912241053
sg7
I00
sg8
F0.019434706576743576
sg9
F0.0928998338916271
sg10
F0.03787878787878788
sg11
F1.0
sg12
F0.07772067280046004
sg13
F0.1036542684938879
sg14
F0.15504437601883717
sg15
F0.0
sg16
F0.003619153674832962
sg17
F9.38248481210271e-05
sg18
F0.0
sg19
F0.09375
sg20
F0.053929421370975825
sg21
F0.024630541871921183
sg22
F0.20581487562264686
sg23
F0.296131051474995
sg24
F0.012761294337465506
sg25
F0.28846153846153844
sg26
F0.047659709405834055
ssS'MCDONALD REBECCA'
p161
(dp162
g3
F0.05901379629018417
sg4
F0.015698010104923967
sg5
F0.0
sg6
F0.0
sg7
I00
sg8
F0.0
sg9
F0.0
sg10
F0.10227272727272728
sg11
F1.0
sg12
F0.2779166071683564
sg13
F0.1036542684938879
sg14
F0.13041115739902193
sg15
F0.0
sg16
F0.0009047884187082405
sg17
F0.0
sg18
F0.0
sg19
F0.0
sg20
F0.035306444289336096
sg21
F0.0016420361247947454
sg22
F0.20376122929481802
sg23
F0.0
sg24
F0.0
sg25
F0.07692307692307693
sg26
F0.022047645676722374
ssS'CUMBERLAND MICHAEL S'
p163
(dp164
g3
F0.0
sg4
F0.015698010104923967
sg5
F0.0010238318380776565
sg6
F0.09767313770146396
sg7
I00
sg8
F0.05344544308604483
sg9
F0.07164754631556602
sg10
F0.0
sg11
F1.0
sg12
F0.0
sg13
F0.1036542684938879
sg14
F0.0
sg15
F0.0
sg16
F0.0
sg17
F6.882419414639128e-05
sg18
F0.0
sg19
F0.040625
sg20
F0.005127398039120627
sg21
F0.0
sg22
F0.16194864686450403
sg23
F0.16638710362490078
sg24
F0.007801830967352359
sg25
F0.0
sg26
F0.0
ssS'GAHN ROBERT S'
p165
(dp166
g3
F0.0
sg4
F0.026896740786799583
sg5
F0.0022097709837035503
sg6
F0.21891652059117953
sg7
I00
sg8
F0.0
sg9
F0.1082412150616534
sg10
F0.0
sg11
F0.9997026583258808
sg12
F0.0
sg13
F0.1036542684938879
sg14
F0.0
sg15
F0.0
sg16
F0.0
sg17
F0.007388899844773932
sg18
F0.0
sg19
F0.06373375
sg20
F0.007378824474529333
sg21
F0.0
sg22
F0.16352815333524048
sg23
F0.17278435790788457
sg24
F0.00869628041840524
sg25
F0.0
sg26
F0.002423316334183291
ssS'MCCLELLAN GEORGE'
p167
(dp168
g3
F0.11512311043633243
sg4
F0.015698010104923967
sg5
F0.007357848630466064
sg6
F1.0
sg7
I00
sg8
F0.0
sg9
F0.13927008099397764
sg10
F0.09848484848484848
sg11
F0.9643304133734126
sg12
F0.13718768299824322
sg13
F0.1036542684938879
sg14
F0.2660749864155044
sg15
F0.0
sg16
F0.003410356347438753
sg17
F0.0049795704115426186
sg18
F0.0
sg19
F0.1125
sg20
F0.02018046444115597
sg21
F0.0
sg22
F0.17537450944893823
sg23
F0.2370403632639765
sg24
F0.012734314754762015
sg25
F0.0
sg26
F0.014753678076965718
ssS'HERMANN ROBERT J'
p169
(dp170
g3
F0.0
sg4
F0.015698010104923967
sg5
F0.0015597777470821564
sg6
F0.21138470819144706
sg7
I00
sg8
F0.029152059865115362
sg9
F0.10863047111658769
sg10
F0.0
sg11
F0.9201001259564443
sg12
F0.0
sg13
F0.1036542684938879
sg14
F0.0
sg15
F0.0
sg16
F0.0
sg17
F0.04019805923494717
sg18
F0.0
sg19
F0.0875
sg20
F0.014489614726693285
sg21
F0.0
sg22
F0.17765111782761256
sg23
F0.2363654524871812
sg24
F0.012528617163226658
sg25
F0.0
sg26
F0.005458772092451278
ssS'SCRIMSHAW MATTHEW'
p171
(dp172
g3
F0.0
sg4
F0.015698010104923967
sg5
F0.0
sg6
F0.0
sg7
I00
sg8
F0.0
sg9
F0.0
sg10
F0.0
sg11
F1.0
sg12
F0.0
sg13
F0.1036542684938879
sg14
F0.0
sg15
F0.0
sg16
F0.0
sg17
F0.0
sg18
F0.0
sg19
F0.0
sg20
F0.01634957896045078
sg21
F0.0
sg22
F0.1499748016029313
sg23
F0.0
sg24
F0.0
sg25
F0.0
sg26
F0.02211332562253875
ssS'GATHMANN WILLIAM D'
p173
(dp174
g3
F0.0
sg4
F0.015698010104923967
sg5
F0.0
sg6
F0.0
sg7
I00
sg8
F0.0
sg9
F0.0
sg10
F0.0
sg11
F1.0
sg12
F0.0
sg13
F0.09945452447187866
sg14
F0.0
sg15
F0.0
sg16
F0.0
sg17
F0.0
sg18
F0.0
sg19
F0.0
sg20
F0.040473737213470654
sg21
F0.0
sg22
F0.16517750819638902
sg23
F0.0
sg24
F0.0
sg25
F0.0
sg26
F0.051058180786612846
ssS'HAEDICKE MARK E'
p175
(dp176
g3
F0.2646379298963628
sg4
F0.3461261139844
sg5
F0.0017248994923965229
sg6
F0.3329603126379703
sg7
I00
sg8
F0.19111040973414486
sg9
F0.12529496921437913
sg10
F0.3409090909090909
sg11
F0.7333387360867211
sg12
F0.20658306045440314
sg13
F0.08452695974812786
sg14
F0.33454084404999096
sg15
F0.0
sg16
F0.13509187082405344
sg17
F0.005056309870653953
sg18
F0.0
sg19
F0.14375
sg20
F0.017235302371389805
sg21
F0.10016420361247948
sg22
F0.1801581164866156
sg23
F0.3366679924913926
sg24
F0.03726412431125659
sg25
F0.03142709943328181
sg26
F0.017722813393491816
ssS'BOWEN JR RAYMOND M'
p177
(dp178
g3
F0.1226483596276982
sg4
F0.015698010104923967
sg5
F0.0020042465420115566
sg6
F0.28810165979638314
sg7
I01
sg8
F0.18935098574775228
sg9
F0.1975166089400252
sg10
F0.26515151515151514
sg11
F0.9997622978747204
sg12
F0.3466894166685752
sg13
F0.1036542684938879
sg14
F0.288534685745336
sg15
F0.0
sg16
F0.0018791759465478842
sg17
F0.0001564712744899022
sg18
F0.0
sg19
F0.16875
sg20
F0.006024880370782777
sg21
F0.024630541871921183
sg22
F0.16448892859824588
sg23
F0.25070775643459936
sg24
F0.025778238085122477
sg25
F0.5555555555555556
sg26
F0.0
ssS'GILLIS JOHN'
p179
(dp180
g3
F0.0
sg4
F0.015698010104923967
sg5
F0.0
sg6
F0.0
sg7
I00
sg8
F0.0
sg9
F0.0
sg10
F0.0
sg11
F1.0
sg12
F0.0
sg13
F0.1036542684938879
sg14
F0.0
sg15
F0.0
sg16
F0.0
sg17
F0.0
sg18
F0.0
sg19
F0.0
sg20
F0.0026393284101973767
sg21
F0.0
sg22
F0.1543417943746306
sg23
F0.0
sg24
F0.0
sg25
F0.0
sg26
F0.00028539916171893266
ssS'FITZGERALD JAY L'
p181
(dp182
g3
F0.061786256518582085
sg4
F0.015698010104923967
sg5
F0.001015451332139305
sg6
F0.10434379685526068
sg7
I00
sg8
F0.10813781694605352
sg9
F0.07163495492223793
sg10
F0.001893939393939394
sg11
F1.0
sg12
F0.004915666484815421
sg13
F0.1036542684938879
sg14
F0.13095453722151784
sg15
F0.0
sg16
F0.0011135857461024498
sg17
F0.027550334569562584
sg18
F0.0
sg19
F0.04375
sg20
F0.033879708804365756
sg21
F0.013136288998357963
sg22
F0.20506894318291227
sg23
F0.17921760743229745
sg24
F0.013662223137120408
sg25
F0.5
sg26
F0.0193447528710521
ssS'MORAN MICHAEL P'
p183
(dp184
g3
F0.04435936365436662
sg4
F0.015698010104923967
sg5
F0.0
sg6
F0.0
sg7
I00
sg8
F0.0
sg9
F0.0
sg10
F0.0
sg11
F1.0
sg12
F0.0
sg13
F0.1036542684938879
sg14
F0.023003079152327476
sg15
F0.0
sg16
F0.0013223830734966592
sg17
F0.0
sg18
F0.0
sg19
F0.0
sg20
F0.005395961209477015
sg21
F0.0
sg22
F0.15928035773431862
sg23
F0.0
sg24
F0.0
sg25
F0.0
sg26
F0.0017333857685997687
ssS'REDMOND BRIAN L'
p185
(dp186
g3
F0.11030431051554558
sg4
F0.015698010104923967
sg5
F0.0012851082758901652
sg6
F0.0642105585256357
sg7
I00
sg8
F0.0
sg9
F0.0
sg10
F0.38636363636363635
sg11
F1.0
sg12
F0.5617097673707934
sg13
F0.1036542684938879
sg14
F0.19253758377105598
sg15
F0.0
sg16
F0.01538140311804009
sg17
F0.0
sg18
F0.0
sg19
F0.0
sg20
F0.16141899738274498
sg21
F0.08045977011494253
sg22
F0.17193040221156242
sg23
F0.08714447949981012
sg24
F0.001076952712719308
sg25
F0.22171945701357465
sg26
F0.218614040183084
ssS'BAZELIDES PHILIP J'
p187
(dp188
g3
F0.0
sg4
F0.12055979869790749
sg5
F0.0
sg6
F0.0
sg7
I00
sg8
F0.018220037415697103
sg9
F0.0
sg10
F0.0
sg11
F1.0
sg12
F0.0
sg13
F0.1036542684938879
sg14
F0.0
sg15
F0.0
sg16
F0.0
sg17
F8.436514121170544e-05
sg18
F0.0
sg19
F0.0
sg20
F0.033440376809528535
sg21
F0.0
sg22
F0.1499748016029313
sg23
F0.0727265855453909
sg24
F0.008305694469667392
sg25
F0.0
sg26
F0.046571070126617896
ssS'BELDEN TIMOTHY N'
p189
(dp190
g3
F0.5274935639316126
sg4
F0.3440564270716396
sg5
F0.0006870923993804643
sg6
F0.07586454103154794
sg7
I01
sg8
F0.0
sg9
F1.0
sg10
F0.4318181818181818
sg11
F0.33385363370359317
sg12
F0.1312780069067062
sg13
F0.1036542684938879
sg14
F1.0
sg15
F0.0
sg16
F0.03368596881959911
sg17
F0.02033817679979853
sg18
F0.0
sg19
F0.656249875
sg20
F0.02349338777374559
sg21
F0.17733990147783252
sg22
F0.15904812479241265
sg23
F0.1925736417645587
sg24
F0.05312515446993989
sg25
F0.2231404958677686
sg26
F0.02774907838459009
ssS'DURAN WILLIAM D'
p191
(dp192
g3
F0.05967390586837415
sg4
F0.015698010104923967
sg5
F0.0010368629599167786
sg6
F0.11271490581955998
sg7
I00
sg8
F0.21479587533335381
sg9
F0.14509944154210347
sg10
F0.20075757575757575
sg11
F1.0
sg12
F0.5395052720768216
sg13
F0.1036542684938879
sg14
F0.10849483789168629
sg15
F0.0
sg16
F0.0008351893095768374
sg17
F0.0001513553105491466
sg18
F0.0
sg19
F0.09375
sg20
F0.03427995968032906
sg21
F0.0049261083743842365
sg22
F0.16086038245362366
sg23
F0.18959773517940928
sg24
F0.020213085980193106
sg25
F0.25
sg26
F0.04226891722184077
ssS'THORN TERENCE H'
p193
(dp194
g3
F0.017558914779853455
sg4
F0.01823817786687781
sg5
F0.0017603217301393075
sg6
F0.20171531235383344
sg7
I00
sg8
F0.03886941315348715
sg9
F0.0
sg10
F0.0
sg11
F1.0
sg12
F0.0
sg13
F0.1036542684938879
sg14
F0.013222242347400832
sg15
F0.0
sg16
F0.002853563474387528
sg17
F0.04118148264303053
sg18
F0.0
sg19
F0.0
sg20
F0.09891101611702494
sg21
F0.0
sg22
F0.17101108683404484
sg23
F0.1998572788677337
sg24
F0.00880122462199205
sg25
F0.0
sg26
F0.12962694256591517
ssS'FASTOW ANDREW S'
p195
(dp196
g3
F0.0
sg4
F0.015698010104923967
sg5
F0.0010750684573020758
sg6
F0.24444949576636082
sg7
I01
sg8
F0.3373971952608857
sg9
F0.12024161367831795
sg10
F0.0
sg11
F0.6044799288662835
sg12
F0.0
sg13
F0.1036542684938879
sg14
F0.0
sg15
F0.0
sg16
F0.0
sg17
F0.026782939978449244
sg18
F0.0
sg19
F0.1625
sg20
F0.03740282793091964
sg21
F0.0
sg22
F0.2533027405444973
sg23
F0.3965757726828513
sg24
F0.023407568997361745
sg25
F0.0
sg26
F0.0
ssS'FOY JOE'
p197
(dp198
g3
F0.0037626245956828832
sg4
F0.04353402792561134
sg5
F0.0
sg6
F0.0
sg7
I00
sg8
F0.0
sg9
F0.0
sg10
F0.0
sg11
F1.0
sg12
F0.0
sg13
F0.1036542684938879
sg14
F0.0003622532149972831
sg15
F0.0
sg16
F0.0009047884187082405
sg17
F0.0
sg18
F0.0
sg19
F0.0
sg20
F0.007883908773479264
sg21
F0.0
sg22
F0.1499748016029313
sg23
F0.0
sg24
F0.0017550730330254715
sg25
F0.0
sg26
F0.009998548985594198
ssS'CALGER CHRISTOPHER F'
p199
(dp200
g3
F0.17149646841375668
sg4
F0.015698010104923967
sg5
F0.0012634279736870055
sg6
F0.15657252265445024
sg7
I01
sg8
F0.0729392311707817
sg9
F0.21213358048168224
sg10
F0.3768939393939394
sg11
F0.9250938680841665
sg12
F0.35242944654644326
sg13
F0.1036542684938879
sg14
F0.3963050172070277
sg15
F0.0
sg16
F0.01002227171492205
sg17
F4.691242406051355e-05
sg18
F0.0
sg19
F0.15625
sg20
F0.00346094739345721
sg21
F0.041050903119868636
sg22
F0.15723183630900145
sg23
F0.21614152609025086
sg24
F0.015829473510052303
sg25
F0.1736111111111111
sg26
F0.0
ssS'RICE KENNETH D'
p201
(dp202
g3
F0.059739916826193146
sg4
F0.015698010104923967
sg5
F0.0009456521799109369
sg6
F0.2052342380542308
sg7
I01
sg8
F0.31426134316366705
sg9
F0.16958371035108905
sg10
F0.07954545454545454
sg11
F0.0
sg12
F0.2135300340895733
sg13
F0.1036542684938879
sg14
F0.1564933888788263
sg15
F0.0
sg16
F0.0012527839643652562
sg17
F0.016876792819580513
sg18
F0.0
sg19
F0.21875
sg20
F0.45950590846095235
sg21
F0.006568144499178982
sg22
F0.3082343248234615
sg23
F0.3785223593440947
sg24
F0.004876892714530629
sg25
F0.2222222222222222
sg26
F0.5762767471098494
ssS'KAMINSKI WINCENTY J'
p203
(dp204
g3
F0.3041124826721236
sg4
F0.015698010104923967
sg5
F0.0025741772515522955
sg6
F0.36537814244436384
sg7
I00
sg8
F0.06286466797552938
sg9
F0.05926801000338322
sg10
F0.07765151515151515
sg11
F1.0
sg12
F0.040947171048681695
sg13
F0.1036542684938879
sg14
F0.10559681217170802
sg15
F0.0
sg16
F1.0
sg17
F0.00045068746489411064
sg18
F0.0
sg19
F0.05
sg20
F0.020753681310178133
sg21
F0.28078817733990147
sg22
F0.15723183630900145
sg23
F0.24755817280955458
sg24
F0.010494623140082947
sg25
F0.011901447661469933
sg26
F0.024746724620290726
ssS'LOCKHART EUGENE E'
p205
(dp206
g3
F0.0
sg4
F0.015698010104923967
sg5
F0.0
sg6
F0.0
sg7
I00
sg8
F0.0
sg9
F0.0
sg10
F0.0
sg11
F1.0
sg12
F0.0
sg13
F0.1036542684938879
sg14
F0.0
sg15
F0.0
sg16
F0.0
sg17
F0.0
sg18
F0.0
sg19
F0.0
sg20
F0.0008970347602851444
sg21
F0.0
sg22
F0.1499748016029313
sg23
F0.0
sg24
F0.0
sg25
F0.0
sg26
F0.0
ssS'COX DAVID'
p207
(dp208
g3
F0.006733117697537792
sg4
F0.015698010104923967
sg5
F0.0007510540135612618
sg6
F0.12178979992393875
sg7
I00
sg8
F0.0
sg9
F0.10375635608066949
sg10
F0.0
sg11
F0.9882290364132261
sg12
F0.0
sg13
F0.1036542684938879
sg14
F0.01285998913240355
sg15
F0.0
sg16
F0.002296770601336303
sg17
F4.768464503270308e-05
sg18
F0.0
sg19
F0.1
sg20
F0.010980268592059054
sg21
F0.006568144499178982
sg22
F0.17174596330431602
sg23
F0.28282181095659154
sg24
F0.010635334120453485
sg25
F0.12121212121212122
sg26
F0.0034223152972786145
ssS'OVERDYKE JR JERE C'
p209
(dp210
g3
F0.0
sg4
F0.015698010104923967
sg5
F0.0016807032297415905
sg6
F0.08232974738047674
sg7
I00
sg8
F0.0263993280255854
sg9
F0.0
sg10
F0.0
sg11
F1.0
sg12
F0.0
sg13
F0.1036542684938879
sg14
F0.0
sg15
F0.0
sg16
F0.0
sg17
F1.6988861388169517e-05
sg18
F0.0
sg19
F0.0
sg20
F0.14956384881356252
sg21
F0.0
sg22
F0.26750298165676467
sg23
F0.08543560541296441
sg24
F0.00241200752496676
sg25
F0.0
sg26
F0.15332826138196196
ssS'PEREIRA PAULO V. FERRAZ'
p211
(dp212
g3
F0.0
sg4
F0.015698010104923967
sg5
F0.0
sg6
F0.12214387816211537
sg7
I00
sg8
F0.0
sg9
F0.0
sg10
F0.0
sg11
F0.9711076348324642
sg12
F0.0
sg13
F0.1036542684938879
sg14
F0.0
sg15
F0.0
sg16
F0.0
sg17
F0.0
sg18
F0.7344194278419311
sg19
F0.0
sg20
F0.0008970347602851444
sg21
F0.0
sg22
F0.1499748016029313
sg23
F0.0
sg24
F0.0002698151395493809
sg25
F0.0
sg26
F0.0
ssS'STABLER FRANK'
p213
(dp214
g3
F0.0
sg4
F0.015698010104923967
sg5
F0.0005841782806586415
sg6
F0.0721882472252943
sg7
I00
sg8
F0.0
sg9
F0.08509683019317546
sg10
F0.0
sg11
F1.0
sg12
F0.0
sg13
F0.1036542684938879
sg14
F0.0
sg15
F0.0
sg16
F0.0
sg17
F0.03437068672356198
sg18
F0.0
sg19
F0.0625
sg20
F0.011307829807566077
sg21
F0.0
sg22
F0.1794420697143368
sg23
F0.21552330781870638
sg24
F0.010738598135282097
sg25
F0.0
sg26
F0.0
ssS'SKILLING JEFFREY K'
p215
(dp216
g3
F0.23942174400950558
sg4
F0.015698010104923967
sg5
F0.00022365997230192544
sg6
F0.1282375209277724
sg7
I01
sg8
F0.37314636627347664
sg9
F0.20541192367494335
sg10
F0.16666666666666666
sg11
F1.0
sg12
F0.11163320017129214
sg13
F0.1036542684938879
sg14
F0.36986053251222606
sg15
F0.0
sg16
F0.007516703786191537
sg17
F0.00213538404334708
sg18
F0.0
sg19
F0.7
sg20
F0.5317507033126446
sg21
F0.04926108374384237
sg22
F0.5440551591529837
sg23
F1.0
sg24
F0.08384253915996144
sg25
F0.2777777777777778
sg26
F0.5604339348249979
ssS'BLAKE JR. NORMAN P'
p217
(dp218
g3
F0.0
sg4
F0.015698010104923967
sg5
F0.0
sg6
F0.005590939094171697
sg7
I00
sg8
F0.0
sg9
F0.0
sg10
F0.0
sg11
F0.9675309740422431
sg12
F0.0
sg13
F0.1036542684938879
sg14
F0.0
sg15
F0.0
sg16
F0.0
sg17
F0.0
sg18
F0.8253351128648523
sg19
F0.0
sg20
F0.0008970347602851444
sg21
F0.0
sg22
F0.1499748016029313
sg23
F0.0
sg24
F1.2350352998484654e-05
sg25
F0.0
sg26
F0.0
ssS'SHERRICK JEFFREY B'
p219
(dp220
g3
F0.040464717143045746
sg4
F0.015698010104923967
sg5
F0.0
sg6
F0.0
sg7
I00
sg8
F0.0
sg9
F0.0
sg10
F0.07386363636363637
sg11
F1.0
sg12
F0.29272673631599044
sg13
F0.1036542684938879
sg14
F0.10559681217170802
sg15
F0.0
sg16
F0.001739977728285078
sg17
F0.0
sg18
F0.0
sg19
F0.0
sg20
F0.03817704503652396
sg21
F0.029556650246305417
sg22
F0.17335351278093103
sg23
F0.0
sg24
F0.0
sg25
F0.72
sg26
F0.04152943556238337
ssS'PRENTICE JAMES'
p221
(dp222
g3
F0.0
sg4
F0.1021286501702277
sg5
F0.0
sg6
F0.0
sg7
I00
sg8
F0.0
sg9
F0.0
sg10
F0.0
sg11
F1.0
sg12
F0.0
sg13
F0.1036542684938879
sg14
F0.0
sg15
F0.0
sg16
F0.0
sg17
F0.0
sg18
F0.0
sg19
F0.0
sg20
F0.02317469660916466
sg21
F0.0
sg22
F0.16199868664296083
sg23
F0.0
sg24
F0.005449489455816119
sg25
F0.0
sg26
F0.025801242934747674
ssS'GRAY RODNEY'
p223
(dp224
g3
F0.0
sg4
F0.030030676209014794
sg5
F0.0
sg6
F0.0
sg7
I00
sg8
F0.0710581459212187
sg9
F0.0
sg10
F0.0
sg11
F1.0
sg12
F0.0
sg13
F0.1036542684938879
sg14
F0.0
sg15
F0.0
sg16
F0.0
sg17
F0.06571919014483874
sg18
F0.0
sg19
F0.0
sg20
F0.0008970347602851444
sg21
F0.0
sg22
F0.1499748016029313
sg23
F0.005952713051334614
sg24
F0.011072424604015961
sg25
F0.0
sg26
F0.0
ssS'PICKERING MARK R'
p225
(dp226
g3
F0.05927784012146016
sg4
F0.015698010104923967
sg5
F0.00040940327844929305
sg6
F0.1383659070741335
sg7
I00
sg8
F0.0
sg9
F0.01866843646229991
sg10
F0.013257575757575758
sg11
F1.0
sg12
F0.03586575368431029
sg13
F0.1036542684938879
sg14
F0.13186017025901106
sg15
F0.004906470407850353
sg16
F0.004663140311804009
sg17
F0.0
sg18
F0.0
sg19
F0.0375
sg20
F0.0014829056927844434
sg21
F0.0
sg22
F0.1499748016029313
sg23
F0.5894553739995573
sg24
F0.013390235339694046
sg25
F0.0
sg26
F0.0008384091664981969
ssS'THE TRAVEL AGENCY IN THE PARK'
p227
(dp228
g3
F0.0
sg4
F0.015698010104923967
sg5
F0.0
sg6
F0.0
sg7
I00
sg8
F0.0
sg9
F0.0
sg10
F0.0
sg11
F1.0
sg12
F0.0
sg13
F0.1036542684938879
sg14
F0.0
sg15
F0.0
sg16
F0.0
sg17
F0.03495226564324221
sg18
F0.0
sg19
F0.0
sg20
F0.0008970347602851444
sg21
F0.0
sg22
F0.1499748016029313
sg23
F0.0
sg24
F0.0034964921183262697
sg25
F0.0
sg26
F0.0
ssS'NOLES JAMES L'
p229
(dp230
g3
F0.0
sg4
F0.13429854399041885
sg5
F0.0
sg6
F0.0
sg7
I00
sg8
F0.0
sg9
F0.0
sg10
F0.0
sg11
F1.0
sg12
F0.0
sg13
F0.0981707490342833
sg14
F0.0
sg15
F0.0
sg16
F0.0
sg17
F0.0
sg18
F0.0
sg19
F0.0
sg20
F0.008398025876583292
sg21
F0.0
sg22
F0.1766508405070452
sg23
F0.0
sg24
F0.007477815255965218
sg25
F0.0
sg26
F0.0
ssS'KEAN STEVEN J'
p231
(dp232
g3
F0.8419037560234999
sg4
F0.015698010104923967
sg5
F0.0008790644835456127
sg6
F0.18339067069412449
sg7
I00
sg8
F0.058304119730230725
sg9
F0.10081100972417091
sg10
F0.26515151515151514
sg11
F1.0
sg12
F0.05050564028306514
sg13
F0.1036542684938879
sg14
F0.6591197246875566
sg15
F0.0
sg16
F0.4704203786191537
sg17
F0.00011882550209566293
sg18
F0.0
sg19
F0.125
sg20
F0.12608767219367814
sg21
F0.6354679802955665
sg22
F0.3878850989946899
sg23
F0.3638560982238148
sg24
F0.016874521948880297
sg25
F0.05725699067909454
sg26
F0.05886879569065025
ssS'FOWLER PEGGY'
p233
(dp234
g3
F0.03412766519242194
sg4
F0.015698010104923967
sg5
F0.0
sg6
F0.0
sg7
I00
sg8
F0.0
sg9
F0.0
sg10
F0.0
sg11
F1.0
sg12
F0.0
sg13
F0.1036542684938879
sg14
F0.0018112660749864155
sg15
F0.0
sg16
F0.0025055679287305124
sg17
F0.0
sg18
F0.0
sg19
F0.0
sg20
F0.0392406373815154
sg21
F0.0
sg22
F0.1822311683441797
sg23
F0.0
sg24
F0.0
sg25
F0.0
sg26
F0.03856303691026629
ssS'WASAFF GEORGE'
p235
(dp236
g3
F0.02640438312759918
sg4
F0.14301254768749166
sg5
F0.0
sg6
F0.0
sg7
I00
sg8
F0.03886941315348715
sg9
F0.05095293645364483
sg10
F0.041666666666666664
sg11
F0.8335443070483673
sg12
F0.2530585106382979
sg13
F0.1036542684938879
sg14
F0.061039666727042204
sg15
F0.0
sg16
F0.0020879732739420937
sg17
F0.00013755186067125887
sg18
F0.0
sg19
F0.040625
sg20
F0.04273330131027945
sg21
F0.011494252873563218
sg22
F0.1723266896170166
sg23
F0.23396546976489707
sg24
F0.009988384198489079
sg25
F0.23333333333333334
sg26
F0.0485688060317481
ssS'WHITE JR THOMAS E'
p237
(dp238
g3
F0.0
sg4
F0.015698010104923967
sg5
F0.0021705675179130106
sg6
F0.3556213198812745
sg7
I00
sg8
F0.0
sg9
F0.05776469619054213
sg10
F0.0
sg11
F1.0
sg12
F0.0
sg13
F0.1036542684938879
sg14
F0.0
sg15
F0.0
sg16
F0.0
sg17
F0.1047771616419696
sg18
F0.0
sg19
F0.05625
sg20
F0.3089913976984781
sg21
F0.0
sg22
F0.9473332771321552
sg23
F0.2857509237278832
sg24
F0.01867866808115385
sg25
F0.0
sg26
F0.0377615727132898
ssS'CHRISTODOULOU DIOMEDES'
p239
(dp240
g3
F0.0
sg4
F0.015698010104923967
sg5
F0.0
sg6
F0.0
sg7
I00
sg8
F0.0
sg9
F0.0
sg10
F0.0
sg11
F1.0
sg12
F0.0
sg13
F0.1036542684938879
sg14
F0.0
sg15
F0.0
sg16
F0.0
sg17
F0.0
sg18
F0.0
sg19
F0.0
sg20
F0.12454646015696207
sg21
F0.0
sg22
F0.20472085289433764
sg23
F0.0
sg24
F0.0
sg25
F0.0
sg26
F0.14926917668091752
ssS'ALLEN PHILLIP K'
p241
(dp242
g3
F0.19156379959073205
sg4
F0.45519895121977366
sg5
F0.0005817836250903189
sg6
F0.06062169144485778
sg7
I00
sg8
F0.05923795738124325
sg9
F0.842663908089086
sg10
F0.08901515151515152
sg11
F0.12080033420975886
sg12
F0.07451757408683667
sg13
F0.09634567351381695
sg14
F0.2548451367505887
sg15
F0.0
sg16
F0.15277004454342985
sg17
F1.4672198471600946e-05
sg18
F0.0
sg19
F0.521875
sg20
F0.03608308234920695
sg21
F0.10673234811165845
sg22
F0.15723183630900145
sg23
F0.18173547457026182
sg24
F0.04330292548962511
sg25
F0.029612756264236904
sg26
F0.05035290743226814
ssS'SHARP VICTORIA T'
p243
(dp244
g3
F0.2070103637203776
sg4
F0.04440913455721657
sg5
F0.003972033034346168
sg6
F0.5085481480833877
sg7
I00
sg8
F0.08204516859024914
sg9
F0.09855904681079321
sg10
F0.045454545454545456
sg11
F1.0
sg12
F0.0352122231871472
sg13
F0.1036542684938879
sg14
F0.4486506067741351
sg15
F0.0
sg16
F0.009465478841870824
sg17
F0.00023176281927838073
sg18
F0.0
sg19
F0.075
sg20
F0.010949813394269228
sg21
F0.009852216748768473
sg22
F0.16224364546638456
sg23
F0.2233018794915312
sg24
F0.015223195743544988
sg25
F0.04411764705882353
sg26
F0.008183005057821643
ssS'JAEDICKE ROBERT'
p245
(dp246
g3
F0.0
sg4
F0.015698010104923967
sg5
F0.0
sg6
F0.0
sg7
I00
sg8
F0.0
sg9
F0.0
sg10
F0.0
sg11
F0.9928660826746826
sg12
F0.0
sg13
F0.10109721422411819
sg14
F0.0
sg15
F0.0
sg16
F0.0
sg17
F0.0
sg18
F0.7888208669413335
sg19
F0.0
sg20
F0.009680623034004581
sg21
F0.0
sg22
F0.15251381650683882
sg23
F0.0
sg24
F0.0008087115430985846
sg25
F0.0
sg26
F0.012569732538217809
ssS'WINOKUR JR. HERBERT S'
p247
(dp248
g3
F0.0
sg4
F0.015698010104923967
sg5
F0.0
sg6
F0.0061766981548589586
sg7
I00
sg8
F0.0
sg9
F0.0
sg10
F0.0
sg11
F0.9928660826746826
sg12
F0.0
sg13
F0.1036542684938879
sg14
F0.0
sg15
F0.0
sg16
F0.0
sg17
F0.0
sg18
F0.7875805141298671
sg19
F0.0
sg20
F0.0008970347602851444
sg21
F0.0
sg22
F0.1499748016029313
sg23
F0.0
sg24
F0.0008207046145795212
sg25
F0.0
sg26
F0.0
ssS'BROWN MICHAEL'
p249
(dp250
g3
F0.09809228331903096
sg4
F0.015698010104923967
sg5
F0.0
sg6
F0.21545442226234138
sg7
I00
sg8
F0.0
sg9
F0.0
sg10
F0.02462121212121212
sg11
F1.0
sg12
F0.04025156782451819
sg13
F0.1036542684938879
sg14
F0.1378373483064662
sg15
F0.0
sg16
F0.002853563474387528
sg17
F0.0
sg18
F0.0
sg19
F0.0
sg20
F0.0008970347602851444
sg21
F0.0016420361247947454
sg22
F0.1499748016029313
sg23
F0.0
sg24
F0.00047593760640290197
sg25
F0.024390243902439025
sg26
F0.0
ssS'BADUM JAMES P'
p251
(dp252
g3
F0.0
sg4
F0.04310903301789267
sg5
F0.0
sg6
F0.01523847825041637
sg7
I00
sg8
F0.0
sg9
F0.0
sg10
F0.0
sg11
F1.0
sg12
F0.0
sg13
F0.1036542684938879
sg14
F0.0
sg15
F0.0
sg16
F0.0
sg17
F0.0
sg18
F0.0
sg19
F0.0
sg20
F0.006142103383251037
sg21
F0.0
sg22
F0.1499748016029313
sg23
F0.0
sg24
F0.0017619386319167325
sg25
F0.0
sg26
F0.007505942637650726
ssS'HUGHES JAMES A'
p253
(dp254
g3
F0.047461878671859525
sg4
F0.015698010104923967
sg5
F0.0
sg6
F0.0
sg7
I00
sg8
F0.0
sg9
F0.0
sg10
F0.06628787878787878
sg11
F1.0
sg12
F0.22397389992010178
sg13
F0.1036542684938879
sg14
F0.10668357181669988
sg15
F0.0
sg16
F0.002366369710467706
sg17
F0.0
sg18
F0.0
sg19
F0.0
sg20
F0.02364981397000877
sg21
F0.008210180623973728
sg22
F0.17090213946829078
sg23
F0.0
sg24
F0.0
sg25
F0.14705882352941177
sg26
F0.02197966576826438
ssS'REYNOLDS LAWRENCE'
p255
(dp256
g3
F0.0
sg4
F0.023564627558967086
sg5
F0.0009325217043247804
sg6
F0.03675856672626255
sg7
I00
sg8
F0.030366729026161835
sg9
F0.0533537376796186
sg10
F0.0
sg11
F0.9429286613974602
sg12
F0.0
sg13
F0.09552003720785657
sg14
F0.0
sg15
F0.0
sg16
F0.0
sg17
F0.0195035989841047
sg18
F0.0
sg19
F0.0125
sg20
F0.0867878333254771
sg21
F0.0
sg22
F0.1615768323081225
sg23
F0.06875001124851295
sg24
F0.0038091520712097214
sg25
F0.0
sg26
F0.12113152106369837
ssS'DIMICHELE RICHARD G'
p257
(dp258
g3
F0.0
sg4
F0.015698010104923967
sg5
F0.0011545834195675617
sg6
F0.15654629463680753
sg7
I00
sg8
F0.13504439081329195
sg9
F0.155112570017854
sg10
F0.0
sg11
F1.0
sg12
F0.0
sg13
F0.1036542684938879
sg14
F0.0
sg15
F0.0
sg16
F0.0
sg17
F0.036167837981090044
sg18
F0.0
sg19
F0.125
sg20
F0.17011526854964149
sg21
F0.0
sg22
F0.15723183630900145
sg23
F0.23647793761664707
sg24
F0.022867475217915895
sg25
F0.0
sg26
F0.23849025910505717
ssS'BHATNAGAR SANJAY'
p259
(dp260
g3
F0.03452373093933593
sg4
F0.015698010104923967
sg5
F0.0
sg6
F0.0
sg7
I00
sg8
F0.0
sg9
F0.0
sg10
F0.0
sg11
F1.0
sg12
F0.0
sg13
F1.0
sg14
F0.08386161927187104
sg15
F0.0
sg16
F0.0020183741648106906
sg17
F0.013307684013742058
sg18
F1.0
sg19
F0.0
sg20
F0.0008970347602851444
sg21
F0.0016420361247947454
sg22
F0.0
sg23
F0.0
sg24
F0.14924991207736385
sg25
F0.034482758620689655
sg26
F0.07582569241103163
ssS'CARTER REBECCA C'
p261
(dp262
g3
F0.02059541883952736
sg4
F0.015698010104923967
sg5
F0.0
sg6
F0.0
sg7
I00
sg8
F0.014576029932557681
sg9
F0.04670777786460949
sg10
F0.054924242424242424
sg11
F0.9544022833101148
sg12
F0.4276629841789416
sg13
F0.08583317820394383
sg14
F0.035500815069733745
sg15
F0.0
sg16
F0.0010439866369710469
sg17
F5.2124915622792834e-05
sg18
F0.0
sg19
F0.0375
sg20
F0.0008970347602851444
sg21
F0.011494252873563218
sg22
F0.1676701686449942
sg23
F0.23559695408267028
sg24
F0.0046114132344779795
sg25
F0.4666666666666667
sg26
F0.0
ssS'BUCHANAN HAROLD G'
p263
(dp264
g3
F0.07181992210706978
sg4
F0.015698010104923967
sg5
F2.0496139614515856e-05
sg6
F0.00262280176427132
sg7
I00
sg8
F0.05923795738124325
sg9
F0.08217525824812778
sg10
F0.0
sg11
F1.0
sg12
F0.0
sg13
F0.1036542684938879
sg14
F0.004165911972468755
sg15
F0.0
sg16
F0.00869988864142539
sg17
F0.00011728106015128387
sg18
F0.0
sg19
F0.0625
sg20
F0.021536280207024548
sg21
F0.0
sg22
F0.16086038245362366
sg23
F0.22318579483792242
sg24
F0.010183846157359545
sg25
F0.0
sg26
F0.024032105848123743
ssS'YEAP SOON'
p265
(dp266
g3
F0.0
sg4
F0.015698010104923967
sg5
F0.0
sg6
F0.24084751467676155
sg7
I00
sg8
F0.0
sg9
F0.0
sg10
F0.0
sg11
F1.0
sg12
F0.0
sg13
F0.1036542684938879
sg14
F0.0
sg15
F0.0
sg16
F0.0
sg17
F0.0
sg18
F0.0
sg19
F0.0
sg20
F0.004818533100680307
sg21
F0.0
sg22
F0.1499748016029313
sg23
F0.0
sg24
F0.0005320308046579429
sg25
F0.0
sg26
F0.005611850618649192
ssS'MURRAY JULIA H'
p267
(dp268
g3
F0.14469601953924352
sg4
F0.015698010104923967
sg5
F0.0021276499680466954
sg6
F0.251701542644571
sg7
I00
sg8
F0.024293383220929467
sg9
F0.07111132403456294
sg10
F0.020833333333333332
sg11
F1.0
sg12
F0.023089280167727908
sg13
F0.1036542684938879
sg14
F0.07154500996196342
sg15
F0.0
sg16
F0.00313195991091314
sg17
F3.1854115102817845e-05
sg18
F0.0
sg19
F0.05
sg20
F0.013051873054679327
sg21
F0.003284072249589491
sg22
F0.16131770802382378
sg23
F0.2063283233956471
sg24
F0.007842754185497455
sg25
F0.044444444444444446
sg26
F0.011659296693550416
ssS'GARLAND C KEVIN'
p269
(dp270
g3
F0.013796290184170572
sg4
F0.015698010104923967
sg5
F0.0017680950465476547
sg6
F0.21159453233258874
sg7
I00
sg8
F0.0729392311707817
sg9
F0.14937728498173733
sg10
F0.01893939393939394
sg11
F1.0
sg12
F0.22014659472666193
sg13
F0.1036542684938879
sg14
F0.0322405361347582
sg15
F0.0
sg16
F0.003062360801781737
sg17
F0.00587023077534171
sg18
F0.0
sg19
F0.10625
sg20
F0.01912850895196666
sg21
F0.04433497536945813
sg22
F0.16494107168276
sg23
F0.20872380671275256
sg24
F0.015126227608431006
sg25
F0.6136363636363636
sg26
F0.01852331684658003
ssS'DODSON KEITH'
p271
(dp272
g3
F0.01161792857614364
sg4
F0.015698010104923967
sg5
F0.0010796884037719957
sg6
F0.12311431481489576
sg7
I00
sg8
F0.0
sg9
F0.012910777426051354
sg10
F0.01893939393939394
sg11
F1.0
sg12
F0.261424081237911
sg13
F0.1036542684938879
sg14
F0.020648433254845135
sg15
F0.0
sg16
F0.0009743875278396437
sg17
F7.47123790593364e-05
sg18
F0.0
sg19
F0.00875
sg20
F0.0008970347602851444
sg21
F0.0049261083743842365
sg22
F0.1499748016029313
sg23
F0.19887640853879118
sg24
F0.0030894325947522895
sg25
F0.21428571428571427
sg26
F0.0
ssS'YEAGER F SCOTT'
p273
(dp274
g3
F0.0
sg4
F0.015698010104923967
sg5
F0.0028854009230427817
sg6
F0.23582047796190816
sg7
I01
sg8
F0.0
sg9
F0.0
sg10
F0.0
sg11
F1.0
sg12
F0.0
sg13
F0.1036542684938879
sg14
F0.0
sg15
F0.0
sg16
F0.0
sg17
F0.01428126160443
sg18
F0.0
sg19
F0.0
sg20
F0.2426823758252377
sg21
F0.0
sg22
F0.3559040949928896
sg23
F0.14254385570227615
sg24
F0.0034791494803393438
sg25
F0.0
sg26
F0.24189062286016133
ssS'HIRKO JOSEPH'
p275
(dp276
g3
F0.0
sg4
F0.017269189477279238
sg5
F0.0
sg6
F0.34086805995724834
sg7
I01
sg8
F0.0
sg9
F0.0
sg10
F0.0
sg11
F1.0
sg12
F0.0
sg13
F0.1036542684938879
sg14
F0.0
sg15
F0.0
sg16
F0.0
sg17
F0.0002756828870716599
sg18
F0.0
sg19
F0.0
sg20
F0.6268065633738387
sg21
F0.0
sg22
F0.1499748016029313
sg23
F0.0
sg24
F0.0008796174399460223
sg25
F0.0
sg26
F0.8957063016414397
ssS'DIETRICH JANET R'
p277
(dp278
g3
F0.16978018351046273
sg4
F0.015698010104923967
sg5
F0.00011771813893934087
sg6
F0.015190393551404729
sg7
I00
sg8
F0.10813781694605352
sg9
F0.09778901731271929
sg10
F0.5776515151515151
sg11
F1.0
sg12
F0.5456160451341783
sg13
F0.1036542684938879
sg14
F0.34450280746241624
sg15
F0.0
sg16
F0.004384743875278397
sg17
F4.565756498070558e-05
sg18
F0.0
sg19
F0.075
sg20
F0.03884065097954759
sg21
F0.022988505747126436
sg22
F0.1681174171596938
sg23
F0.22506024703534191
sg24
F0.013619803199104502
sg25
F0.2222222222222222
sg26
F0.04512640245316927
ssS'DERRICK JR. JAMES V'
p279
(dp280
g3
F0.14396989900323454
sg4
F0.015698010104923967
sg5
F0.0008796929321781508
sg6
F0.22348019566101163
sg7
I00
sg8
F0.09406397983143891
sg9
F0.06622874361996742
sg10
F0.12121212121212122
sg11
F0.6336020061716946
sg12
F0.1350151696957281
sg13
F0.0
sg14
F0.2537583771055968
sg15
F0.0
sg16
F0.06326559020044543
sg17
F0.0007222196642402519
sg18
F0.0
sg19
F0.1
sg20
F0.18057482853286244
sg21
F0.03284072249589491
sg22
F0.2528978156628998
sg23
F0.4430789249661195
sg24
F0.00532041426540897
sg25
F0.022002200220022004
sg26
F0.2571274677725741
ssS'FREVERT MARK A'
p281
(dp282
g3
F0.2161858868572183
sg4
F1.0
sg5
F0.0006946548538290231
sg6
F0.3802494284477822
sg7
I00
sg8
F0.31426134316366705
sg9
F0.07684134713601215
sg10
F0.4583333333333333
sg11
F0.039200875702619514
sg12
F0.3399870066590872
sg13
F0.1036542684938879
sg14
F0.5395761637384532
sg15
F0.024532352039251762
sg16
F0.0014615812917594655
sg17
F0.7169705887094151
sg18
F0.0
sg19
F0.25
sg20
F0.29837301090888096
sg21
F0.009852216748768473
sg22
F0.39117154350086353
sg23
F0.9547125869959991
sg24
F0.16659486756602535
sg25
F0.2857142857142857
sg26
F0.30375571671726975
ssS'PAI LOU L'
p283
(dp284
g3
F0.0
sg4
F0.015698010104923967
sg5
F0.001036785648209736
sg6
F0.14008821356600498
sg7
I00
sg8
F0.0
sg9
F0.15565097640456782
sg10
F0.0
sg11
F1.0
sg12
F0.0
sg13
F0.1036542684938879
sg14
F0.0
sg15
F0.0
sg16
F0.0
sg17
F0.17659313288986614
sg18
F0.0
sg19
F0.125
sg20
F0.48545265873774984
sg21
F0.0
sg22
F0.6367693098264996
sg23
F0.23565994575517116
sg24
F0.03016018967901954
sg25
F0.0
sg26
F0.4473039255645913
ssS'BAY FRANKLIN R'
p285
(dp286
g3
F0.0
sg4
F0.055587036659831016
sg5
F0.004565141994039827
sg6
F0.5645231090692113
sg7
I00
sg8
F0.0
sg9
F0.06802946046847858
sg10
F0.0
sg11
F0.9424603910642264
sg12
F0.0
sg13
F0.09885355031730485
sg14
F0.0
sg15
F0.0
sg16
F0.0
sg17
F6.66040588513464e-06
sg18
F0.0
sg19
F0.05
sg20
F0.0021790012489479277
sg21
F0.0
sg22
F0.1583701980815129
sg23
F0.21567538771374425
sg24
F0.007992445485092849
sg25
F0.0
sg26
F0.0
ssS'HAYSLETT RODERICK J'
p287
(dp288
g3
F0.1748630272625256
sg4
F0.015698010104923967
sg5
F0.0
sg6
F0.0
sg7
I00
sg8
F0.0
sg9
F0.0
sg10
F0.06628787878787878
sg11
F1.0
sg12
F0.06079170783033341
sg13
F0.1036542684938879
sg14
F0.10342329288172432
sg15
F0.0
sg16
F0.07384465478841871
sg17
F0.0
sg18
F0.0
sg19
F0.0
sg20
F0.00794960004513147
sg21
F0.06239737274220033
sg22
F0.1699367575513423
sg23
F0.0
sg24
F0.0
sg25
F0.03581526861451461
sg26
F0.0
ssS'FUGH JOHN L'
p289
(dp290
g3
F0.0
sg4
F0.023446088438760147
sg5
F0.0
sg6
F0.0
sg7
I00
sg8
F0.0
sg9
F0.0
sg10
F0.0
sg11
F1.0
sg12
F0.0
sg13
F0.1036542684938879
sg14
F0.0
sg15
F0.0
sg16
F0.0
sg17
F0.0
sg18
F0.0
sg19
F0.0
sg20
F0.004485295866346724
sg21
F0.0
sg22
F0.1499748016029313
sg23
F0.0
sg24
F0.0004885197095749312
sg25
F0.0
sg26
F0.0051349722886526485
ssS'FALLON JAMES B'
p291
(dp292
g3
F0.11584923097234141
sg4
F0.015698010104923967
sg5
F0.002668190057398724
sg6
F0.4193160607266035
sg7
I00
sg8
F0.07275324102884227
sg9
F0.33456441200779263
sg10
F0.07954545454545454
sg11
F1.0
sg12
F0.11011092925986543
sg13
F0.1036542684938879
sg14
F0.29052707842782105
sg15
F0.0
sg16
F0.005219933184855234
sg17
F0.03875400601695276
sg18
F0.0
sg19
F0.3125
sg20
F0.04834771804004181
sg21
F0.060755336617405585
sg22
F0.23013875702341977
sg23
F0.27409296491003887
sg24
F0.03549968470871702
sg25
F0.49333333333333335
sg26
F0.027374126247103794
ssS'KOENIG MARK E'
p293
(dp294
g3
F0.15671001386230113
sg4
F0.015698010104923967
sg5
F0.0034719869596220965
sg6
F0.5552340194874171
sg7
I01
sg8
F0.058304119730230725
sg9
F0.09205863419723524
sg10
F0.10037878787878787
sg11
F1.0
sg12
F0.10271962214773522
sg13
F0.1036542684938879
sg14
F0.411338525629415
sg15
F0.0
sg16
F0.00424554565701559
sg17
F0.014523352879211415
sg18
F0.0
sg19
F0.0875
sg20
F0.039958928409147616
sg21
F0.024630541871921183
sg22
F0.2218569145645353
sg23
F0.27891452749946455
sg24
F0.015328545509935503
sg25
F0.2459016393442623
sg26
F0.01955658234169037
ssS'SAVAGE FRANK'
p295
(dp296
g3
F0.0
sg4
F0.015698010104923967
sg5
F0.0
sg6
F0.0
sg7
I00
sg8
F0.0
sg9
F0.0
sg10
F0.0
sg11
F0.9653907988446478
sg12
F0.0
sg13
F0.1036542684938879
sg14
F0.0
sg15
F0.0
sg16
F0.0
sg17
F0.0
sg18
F0.9069372715139558
sg19
F0.0
sg20
F0.0008970347602851444
sg21
F0.0
sg22
F0.1499748016029313
sg23
F0.0
sg24
F3.621096461635453e-05
sg25
F0.0
sg26
F0.0
ssS'IZZO LAWRENCE L'
p297
(dp298
g3
F0.03274143507822298
sg4
F0.015698010104923967
sg5
F0.0027911537126228494
sg6
F0.122803949939457
sg7
I00
sg8
F0.06073345805232367
sg9
F0.0
sg10
F0.05303030303030303
sg11
F1.0
sg12
F0.2597374742621826
sg13
F0.1036542684938879
sg14
F0.07915232747690636
sg15
F0.0
sg16
F0.0013223830734966592
sg17
F0.149977764862382
sg18
F0.0
sg19
F0.0
sg20
F0.11929960124848815
sg21
F0.008210180623973728
sg22
F0.36043024765832266
sg23
F0.07673645544059075
sg24
F0.01911548818951386
sg25
F0.2631578947368421
sg26
F0.0630356292744369
ssS'TILNEY ELIZABETH A'
p299
(dp300
g3
F0.03036504059673906
sg4
F0.015698010104923967
sg5
F0.0
sg6
F0.0
sg7
I00
sg8
F0.05344544308604483
sg9
F0.04944050899965046
sg10
F0.01893939393939394
sg11
F0.8359199015176981
sg12
F0.10002312673450509
sg13
F0.1036542684938879
sg14
F0.06864698424198515
sg15
F0.0
sg16
F0.0013223830734966592
sg17
F0.014677507490784749
sg18
F0.0
sg19
F0.0375
sg20
F0.02465986050298763
sg21
F0.0180623973727422
sg22
F0.1831883158672049
sg23
F0.22257477561466374
sg24
F0.0038566415442719162
sg25
F0.5789473684210527
sg26
F0.017213327998196363
ssS'MARTIN AMANDA K'
p301
(dp302
g3
F0.10046867780051488
sg4
F0.028781727209935232
sg5
F0.00019905234426262976
sg6
F0.03589304214405301
sg7
I00
sg8
F1.0
sg9
F0.0
sg10
F0.015151515151515152
sg11
F1.0
sg12
F0.0241843039673442
sg13
F0.1036542684938879
sg14
F0.08639739177685202
sg15
F0.0
sg16
F0.016007795100222717
sg17
F0.2720586609939314
sg18
F0.0
sg19
F0.0
sg20
F0.043015657816708984
sg21
F0.0
sg22
F0.1499748016029313
sg23
F0.3144967235331489
sg24
F0.08118030904136705
sg25
F0.0
sg26
F0.06027375261671699
ssS'BUY RICHARD B'
p303
(dp304
g3
F0.2325566043963298
sg4
F0.11518265591952817
sg5
F0.0
sg6
F0.0
sg7
I00
sg8
F0.1496204207458496
sg9
F0.11098470362632322
sg10
F0.29545454545454547
sg11
F0.80171647757981
sg12
F0.20373714375441626
sg13
F0.1036542684938879
sg14
F0.4225683752943307
sg15
F0.0
sg16
F0.07328786191536749
sg17
F0.038666262408987725
sg18
F0.0
sg19
F0.1125
sg20
F0.07097186116718356
sg21
F0.11658456486042693
sg22
F0.20189507378247287
sg23
F0.29745207683544234
sg24
F0.02274726447164683
sg25
F0.06742640075973409
sg26
F0.07403006208385234
ssS'GRAMM WENDY L'
p305
(dp306
g3
F0.0
sg4
F0.015698010104923967
sg5
F0.0
sg6
F0.0
sg7
I00
sg8
F0.0
sg9
F0.0
sg10
F0.0
sg11
F1.0
sg12
F0.0
sg13
F0.1036542684938879
sg14
F0.0
sg15
F0.0
sg16
F0.0
sg17
F0.0
sg18
F0.8652875297394533
sg19
F0.0
sg20
F0.0008970347602851444
sg21
F0.0
sg22
F0.1499748016029313
sg23
F0.0
sg24
F0.0011519142376037773
sg25
F0.0
sg26
F0.0
ssS'CAUSEY RICHARD A'
p307
(dp308
g3
F0.12489273219354413
sg4
F0.015698010104923967
sg5
F0.0006259315530068419
sg6
F0.13408636886209746
sg7
I01
sg8
F0.06802147301860251
sg9
F0.098176305369005
sg10
F0.10984848484848485
sg11
F0.9329411771420157
sg12
F0.14104741127254733
sg13
F0.1036542684938879
sg14
F0.28708567288534687
sg15
F0.0
sg16
F0.003410356347438753
sg17
F0.029720372029036667
sg18
F0.0
sg19
F0.125
sg20
F0.05179938849950292
sg21
F0.019704433497536946
sg22
F0.29405153141300355
sg23
F0.3736207073424893
sg24
F0.01804520795054119
sg25
F0.24489795918367346
sg26
F0.0
ssS'TAYLOR MITCHELL S'
p309
(dp310
g3
F0.03518384051752591
sg4
F0.0505321242547274
sg5
F0.0
sg6
F0.0
sg7
I00
sg8
F0.0
sg9
F0.09221622248414899
sg10
F0.0
sg11
F1.0
sg12
F0.0
sg13
F0.1036542684938879
sg14
F0.054337982249592465
sg15
F0.0
sg16
F0.0020183741648106906
sg17
F0.0
sg18
F0.0
sg19
F0.075
sg20
F0.0770868661379723
sg21
F0.0
sg22
F0.18244008010049875
sg23
F0.23866104900932097
sg24
F0.010551034994826613
sg25
F0.0
sg26
F0.09261716650192335
ssS'DONAHUE JR JEFFREY M'
p311
(dp312
g3
F0.05709947851343323
sg4
F0.015698010104923967
sg5
F0.0029275313108830404
sg6
F0.4208198004047857
sg7
I00
sg8
F0.0
sg9
F0.11704687937186677
sg10
F0.3560606060606061
sg11
F0.9143929920961903
sg12
F1.0
sg13
F0.1036542684938879
sg14
F0.1398297409889513
sg15
F0.0
sg16
F0.0015311804008908685
sg17
F8.600611077760817e-05
sg18
F0.0
sg19
F0.1
sg20
F0.02288882056417959
sg21
F0.0180623973727422
sg22
F0.1681174171596938
sg23
F0.25070775643459936
sg24
F0.008456563832644972
sg25
F0.5
sg26
F0.022298574512268174
ssS'GLISAN JR BEN F'
p313
(dp314
g3
F0.05762756617598521
sg4
F0.015698010104923967
sg5
F0.0038815373446201332
sg6
F0.5506922010989539
sg7
I01
sg8
F0.013803111652000589
sg9
F0.08894275199531264
sg10
F0.09848484848484848
sg11
F1.0
sg12
F0.27406107577197725
sg13
F0.1036542684938879
sg14
F0.1583046549538127
sg15
F0.0
sg16
F0.0011135857461024498
sg17
F0.019335254812167385
sg18
F0.0
sg19
F0.075
sg20
F0.016735894091266437
sg21
F0.009852216748768473
sg22
F0.17265209213492153
sg23
F0.24744478779905296
sg24
F0.01228550157492107
sg25
F0.375
sg26
F0.011200759837784508
ss.